
ctarget:     file format elf64-x86-64


Disassembly of section .init:

0000000000400c60 <_init>:
  400c60:	48 83 ec 08          	sub    $0x8,%rsp
  400c64:	48 8b 05 8d 33 20 00 	mov    0x20338d(%rip),%rax        # 603ff8 <_DYNAMIC+0x1d0>
  400c6b:	48 85 c0             	test   %rax,%rax
  400c6e:	74 05                	je     400c75 <_init+0x15>
  400c70:	e8 2b 01 00 00       	callq  400da0 <__gmon_start__@plt>
  400c75:	48 83 c4 08          	add    $0x8,%rsp
  400c79:	c3                   	retq   

Disassembly of section .plt:

0000000000400c80 <strcasecmp@plt-0x10>:
  400c80:	ff 35 82 33 20 00    	pushq  0x203382(%rip)        # 604008 <_GLOBAL_OFFSET_TABLE_+0x8>
  400c86:	ff 25 84 33 20 00    	jmpq   *0x203384(%rip)        # 604010 <_GLOBAL_OFFSET_TABLE_+0x10>
  400c8c:	0f 1f 40 00          	nopl   0x0(%rax)

0000000000400c90 <strcasecmp@plt>:
  400c90:	ff 25 82 33 20 00    	jmpq   *0x203382(%rip)        # 604018 <_GLOBAL_OFFSET_TABLE_+0x18>
  400c96:	68 00 00 00 00       	pushq  $0x0
  400c9b:	e9 e0 ff ff ff       	jmpq   400c80 <_init+0x20>

0000000000400ca0 <__errno_location@plt>:
  400ca0:	ff 25 7a 33 20 00    	jmpq   *0x20337a(%rip)        # 604020 <_GLOBAL_OFFSET_TABLE_+0x20>
  400ca6:	68 01 00 00 00       	pushq  $0x1
  400cab:	e9 d0 ff ff ff       	jmpq   400c80 <_init+0x20>

0000000000400cb0 <srandom@plt>:
  400cb0:	ff 25 72 33 20 00    	jmpq   *0x203372(%rip)        # 604028 <_GLOBAL_OFFSET_TABLE_+0x28>
  400cb6:	68 02 00 00 00       	pushq  $0x2
  400cbb:	e9 c0 ff ff ff       	jmpq   400c80 <_init+0x20>

0000000000400cc0 <strncmp@plt>:
  400cc0:	ff 25 6a 33 20 00    	jmpq   *0x20336a(%rip)        # 604030 <_GLOBAL_OFFSET_TABLE_+0x30>
  400cc6:	68 03 00 00 00       	pushq  $0x3
  400ccb:	e9 b0 ff ff ff       	jmpq   400c80 <_init+0x20>

0000000000400cd0 <strcpy@plt>:
  400cd0:	ff 25 62 33 20 00    	jmpq   *0x203362(%rip)        # 604038 <_GLOBAL_OFFSET_TABLE_+0x38>
  400cd6:	68 04 00 00 00       	pushq  $0x4
  400cdb:	e9 a0 ff ff ff       	jmpq   400c80 <_init+0x20>

0000000000400ce0 <puts@plt>:
  400ce0:	ff 25 5a 33 20 00    	jmpq   *0x20335a(%rip)        # 604040 <_GLOBAL_OFFSET_TABLE_+0x40>
  400ce6:	68 05 00 00 00       	pushq  $0x5
  400ceb:	e9 90 ff ff ff       	jmpq   400c80 <_init+0x20>

0000000000400cf0 <write@plt>:
  400cf0:	ff 25 52 33 20 00    	jmpq   *0x203352(%rip)        # 604048 <_GLOBAL_OFFSET_TABLE_+0x48>
  400cf6:	68 06 00 00 00       	pushq  $0x6
  400cfb:	e9 80 ff ff ff       	jmpq   400c80 <_init+0x20>

0000000000400d00 <__stack_chk_fail@plt>:
  400d00:	ff 25 4a 33 20 00    	jmpq   *0x20334a(%rip)        # 604050 <_GLOBAL_OFFSET_TABLE_+0x50>
  400d06:	68 07 00 00 00       	pushq  $0x7
  400d0b:	e9 70 ff ff ff       	jmpq   400c80 <_init+0x20>

0000000000400d10 <mmap@plt>:
  400d10:	ff 25 42 33 20 00    	jmpq   *0x203342(%rip)        # 604058 <_GLOBAL_OFFSET_TABLE_+0x58>
  400d16:	68 08 00 00 00       	pushq  $0x8
  400d1b:	e9 60 ff ff ff       	jmpq   400c80 <_init+0x20>

0000000000400d20 <memset@plt>:
  400d20:	ff 25 3a 33 20 00    	jmpq   *0x20333a(%rip)        # 604060 <_GLOBAL_OFFSET_TABLE_+0x60>
  400d26:	68 09 00 00 00       	pushq  $0x9
  400d2b:	e9 50 ff ff ff       	jmpq   400c80 <_init+0x20>

0000000000400d30 <alarm@plt>:
  400d30:	ff 25 32 33 20 00    	jmpq   *0x203332(%rip)        # 604068 <_GLOBAL_OFFSET_TABLE_+0x68>
  400d36:	68 0a 00 00 00       	pushq  $0xa
  400d3b:	e9 40 ff ff ff       	jmpq   400c80 <_init+0x20>

0000000000400d40 <close@plt>:
  400d40:	ff 25 2a 33 20 00    	jmpq   *0x20332a(%rip)        # 604070 <_GLOBAL_OFFSET_TABLE_+0x70>
  400d46:	68 0b 00 00 00       	pushq  $0xb
  400d4b:	e9 30 ff ff ff       	jmpq   400c80 <_init+0x20>

0000000000400d50 <read@plt>:
  400d50:	ff 25 22 33 20 00    	jmpq   *0x203322(%rip)        # 604078 <_GLOBAL_OFFSET_TABLE_+0x78>
  400d56:	68 0c 00 00 00       	pushq  $0xc
  400d5b:	e9 20 ff ff ff       	jmpq   400c80 <_init+0x20>

0000000000400d60 <__libc_start_main@plt>:
  400d60:	ff 25 1a 33 20 00    	jmpq   *0x20331a(%rip)        # 604080 <_GLOBAL_OFFSET_TABLE_+0x80>
  400d66:	68 0d 00 00 00       	pushq  $0xd
  400d6b:	e9 10 ff ff ff       	jmpq   400c80 <_init+0x20>

0000000000400d70 <signal@plt>:
  400d70:	ff 25 12 33 20 00    	jmpq   *0x203312(%rip)        # 604088 <_GLOBAL_OFFSET_TABLE_+0x88>
  400d76:	68 0e 00 00 00       	pushq  $0xe
  400d7b:	e9 00 ff ff ff       	jmpq   400c80 <_init+0x20>

0000000000400d80 <gethostbyname@plt>:
  400d80:	ff 25 0a 33 20 00    	jmpq   *0x20330a(%rip)        # 604090 <_GLOBAL_OFFSET_TABLE_+0x90>
  400d86:	68 0f 00 00 00       	pushq  $0xf
  400d8b:	e9 f0 fe ff ff       	jmpq   400c80 <_init+0x20>

0000000000400d90 <__memmove_chk@plt>:
  400d90:	ff 25 02 33 20 00    	jmpq   *0x203302(%rip)        # 604098 <_GLOBAL_OFFSET_TABLE_+0x98>
  400d96:	68 10 00 00 00       	pushq  $0x10
  400d9b:	e9 e0 fe ff ff       	jmpq   400c80 <_init+0x20>

0000000000400da0 <__gmon_start__@plt>:
  400da0:	ff 25 fa 32 20 00    	jmpq   *0x2032fa(%rip)        # 6040a0 <_GLOBAL_OFFSET_TABLE_+0xa0>
  400da6:	68 11 00 00 00       	pushq  $0x11
  400dab:	e9 d0 fe ff ff       	jmpq   400c80 <_init+0x20>

0000000000400db0 <strtol@plt>:
  400db0:	ff 25 f2 32 20 00    	jmpq   *0x2032f2(%rip)        # 6040a8 <_GLOBAL_OFFSET_TABLE_+0xa8>
  400db6:	68 12 00 00 00       	pushq  $0x12
  400dbb:	e9 c0 fe ff ff       	jmpq   400c80 <_init+0x20>

0000000000400dc0 <memcpy@plt>:
  400dc0:	ff 25 ea 32 20 00    	jmpq   *0x2032ea(%rip)        # 6040b0 <_GLOBAL_OFFSET_TABLE_+0xb0>
  400dc6:	68 13 00 00 00       	pushq  $0x13
  400dcb:	e9 b0 fe ff ff       	jmpq   400c80 <_init+0x20>

0000000000400dd0 <time@plt>:
  400dd0:	ff 25 e2 32 20 00    	jmpq   *0x2032e2(%rip)        # 6040b8 <_GLOBAL_OFFSET_TABLE_+0xb8>
  400dd6:	68 14 00 00 00       	pushq  $0x14
  400ddb:	e9 a0 fe ff ff       	jmpq   400c80 <_init+0x20>

0000000000400de0 <random@plt>:
  400de0:	ff 25 da 32 20 00    	jmpq   *0x2032da(%rip)        # 6040c0 <_GLOBAL_OFFSET_TABLE_+0xc0>
  400de6:	68 15 00 00 00       	pushq  $0x15
  400deb:	e9 90 fe ff ff       	jmpq   400c80 <_init+0x20>

0000000000400df0 <_IO_getc@plt>:
  400df0:	ff 25 d2 32 20 00    	jmpq   *0x2032d2(%rip)        # 6040c8 <_GLOBAL_OFFSET_TABLE_+0xc8>
  400df6:	68 16 00 00 00       	pushq  $0x16
  400dfb:	e9 80 fe ff ff       	jmpq   400c80 <_init+0x20>

0000000000400e00 <__isoc99_sscanf@plt>:
  400e00:	ff 25 ca 32 20 00    	jmpq   *0x2032ca(%rip)        # 6040d0 <_GLOBAL_OFFSET_TABLE_+0xd0>
  400e06:	68 17 00 00 00       	pushq  $0x17
  400e0b:	e9 70 fe ff ff       	jmpq   400c80 <_init+0x20>

0000000000400e10 <munmap@plt>:
  400e10:	ff 25 c2 32 20 00    	jmpq   *0x2032c2(%rip)        # 6040d8 <_GLOBAL_OFFSET_TABLE_+0xd8>
  400e16:	68 18 00 00 00       	pushq  $0x18
  400e1b:	e9 60 fe ff ff       	jmpq   400c80 <_init+0x20>

0000000000400e20 <__printf_chk@plt>:
  400e20:	ff 25 ba 32 20 00    	jmpq   *0x2032ba(%rip)        # 6040e0 <_GLOBAL_OFFSET_TABLE_+0xe0>
  400e26:	68 19 00 00 00       	pushq  $0x19
  400e2b:	e9 50 fe ff ff       	jmpq   400c80 <_init+0x20>

0000000000400e30 <fopen@plt>:
  400e30:	ff 25 b2 32 20 00    	jmpq   *0x2032b2(%rip)        # 6040e8 <_GLOBAL_OFFSET_TABLE_+0xe8>
  400e36:	68 1a 00 00 00       	pushq  $0x1a
  400e3b:	e9 40 fe ff ff       	jmpq   400c80 <_init+0x20>

0000000000400e40 <getopt@plt>:
  400e40:	ff 25 aa 32 20 00    	jmpq   *0x2032aa(%rip)        # 6040f0 <_GLOBAL_OFFSET_TABLE_+0xf0>
  400e46:	68 1b 00 00 00       	pushq  $0x1b
  400e4b:	e9 30 fe ff ff       	jmpq   400c80 <_init+0x20>

0000000000400e50 <strtoul@plt>:
  400e50:	ff 25 a2 32 20 00    	jmpq   *0x2032a2(%rip)        # 6040f8 <_GLOBAL_OFFSET_TABLE_+0xf8>
  400e56:	68 1c 00 00 00       	pushq  $0x1c
  400e5b:	e9 20 fe ff ff       	jmpq   400c80 <_init+0x20>

0000000000400e60 <gethostname@plt>:
  400e60:	ff 25 9a 32 20 00    	jmpq   *0x20329a(%rip)        # 604100 <_GLOBAL_OFFSET_TABLE_+0x100>
  400e66:	68 1d 00 00 00       	pushq  $0x1d
  400e6b:	e9 10 fe ff ff       	jmpq   400c80 <_init+0x20>

0000000000400e70 <exit@plt>:
  400e70:	ff 25 92 32 20 00    	jmpq   *0x203292(%rip)        # 604108 <_GLOBAL_OFFSET_TABLE_+0x108>
  400e76:	68 1e 00 00 00       	pushq  $0x1e
  400e7b:	e9 00 fe ff ff       	jmpq   400c80 <_init+0x20>

0000000000400e80 <connect@plt>:
  400e80:	ff 25 8a 32 20 00    	jmpq   *0x20328a(%rip)        # 604110 <_GLOBAL_OFFSET_TABLE_+0x110>
  400e86:	68 1f 00 00 00       	pushq  $0x1f
  400e8b:	e9 f0 fd ff ff       	jmpq   400c80 <_init+0x20>

0000000000400e90 <__fprintf_chk@plt>:
  400e90:	ff 25 82 32 20 00    	jmpq   *0x203282(%rip)        # 604118 <_GLOBAL_OFFSET_TABLE_+0x118>
  400e96:	68 20 00 00 00       	pushq  $0x20
  400e9b:	e9 e0 fd ff ff       	jmpq   400c80 <_init+0x20>

0000000000400ea0 <__sprintf_chk@plt>:
  400ea0:	ff 25 7a 32 20 00    	jmpq   *0x20327a(%rip)        # 604120 <_GLOBAL_OFFSET_TABLE_+0x120>
  400ea6:	68 21 00 00 00       	pushq  $0x21
  400eab:	e9 d0 fd ff ff       	jmpq   400c80 <_init+0x20>

0000000000400eb0 <socket@plt>:
  400eb0:	ff 25 72 32 20 00    	jmpq   *0x203272(%rip)        # 604128 <_GLOBAL_OFFSET_TABLE_+0x128>
  400eb6:	68 22 00 00 00       	pushq  $0x22
  400ebb:	e9 c0 fd ff ff       	jmpq   400c80 <_init+0x20>

Disassembly of section .text:

0000000000400ec0 <_start>:
  400ec0:	31 ed                	xor    %ebp,%ebp
  400ec2:	49 89 d1             	mov    %rdx,%r9
  400ec5:	5e                   	pop    %rsi
  400ec6:	48 89 e2             	mov    %rsp,%rdx
  400ec9:	48 83 e4 f0          	and    $0xfffffffffffffff0,%rsp
  400ecd:	50                   	push   %rax
  400ece:	54                   	push   %rsp
  400ecf:	49 c7 c0 80 2e 40 00 	mov    $0x402e80,%r8
  400ed6:	48 c7 c1 10 2e 40 00 	mov    $0x402e10,%rcx
  400edd:	48 c7 c7 c5 11 40 00 	mov    $0x4011c5,%rdi
  400ee4:	e8 77 fe ff ff       	callq  400d60 <__libc_start_main@plt>
  400ee9:	f4                   	hlt    
  400eea:	66 0f 1f 44 00 00    	nopw   0x0(%rax,%rax,1)

0000000000400ef0 <deregister_tm_clones>:
  400ef0:	b8 b7 44 60 00       	mov    $0x6044b7,%eax
  400ef5:	55                   	push   %rbp
  400ef6:	48 2d b0 44 60 00    	sub    $0x6044b0,%rax
  400efc:	48 83 f8 0e          	cmp    $0xe,%rax
  400f00:	48 89 e5             	mov    %rsp,%rbp
  400f03:	76 1b                	jbe    400f20 <deregister_tm_clones+0x30>
  400f05:	b8 00 00 00 00       	mov    $0x0,%eax
  400f0a:	48 85 c0             	test   %rax,%rax
  400f0d:	74 11                	je     400f20 <deregister_tm_clones+0x30>
  400f0f:	5d                   	pop    %rbp
  400f10:	bf b0 44 60 00       	mov    $0x6044b0,%edi
  400f15:	ff e0                	jmpq   *%rax
  400f17:	66 0f 1f 84 00 00 00 	nopw   0x0(%rax,%rax,1)
  400f1e:	00 00 
  400f20:	5d                   	pop    %rbp
  400f21:	c3                   	retq   
  400f22:	0f 1f 40 00          	nopl   0x0(%rax)
  400f26:	66 2e 0f 1f 84 00 00 	nopw   %cs:0x0(%rax,%rax,1)
  400f2d:	00 00 00 

0000000000400f30 <register_tm_clones>:
  400f30:	be b0 44 60 00       	mov    $0x6044b0,%esi
  400f35:	55                   	push   %rbp
  400f36:	48 81 ee b0 44 60 00 	sub    $0x6044b0,%rsi
  400f3d:	48 c1 fe 03          	sar    $0x3,%rsi
  400f41:	48 89 e5             	mov    %rsp,%rbp
  400f44:	48 89 f0             	mov    %rsi,%rax
  400f47:	48 c1 e8 3f          	shr    $0x3f,%rax
  400f4b:	48 01 c6             	add    %rax,%rsi
  400f4e:	48 d1 fe             	sar    %rsi
  400f51:	74 15                	je     400f68 <register_tm_clones+0x38>
  400f53:	b8 00 00 00 00       	mov    $0x0,%eax
  400f58:	48 85 c0             	test   %rax,%rax
  400f5b:	74 0b                	je     400f68 <register_tm_clones+0x38>
  400f5d:	5d                   	pop    %rbp
  400f5e:	bf b0 44 60 00       	mov    $0x6044b0,%edi
  400f63:	ff e0                	jmpq   *%rax
  400f65:	0f 1f 00             	nopl   (%rax)
  400f68:	5d                   	pop    %rbp
  400f69:	c3                   	retq   
  400f6a:	66 0f 1f 44 00 00    	nopw   0x0(%rax,%rax,1)

0000000000400f70 <__do_global_dtors_aux>:
  400f70:	80 3d 71 35 20 00 00 	cmpb   $0x0,0x203571(%rip)        # 6044e8 <completed.7568>
  400f77:	75 11                	jne    400f8a <__do_global_dtors_aux+0x1a>
  400f79:	55                   	push   %rbp
  400f7a:	48 89 e5             	mov    %rsp,%rbp
  400f7d:	e8 6e ff ff ff       	callq  400ef0 <deregister_tm_clones>
  400f82:	5d                   	pop    %rbp
  400f83:	c6 05 5e 35 20 00 01 	movb   $0x1,0x20355e(%rip)        # 6044e8 <completed.7568>
  400f8a:	f3 c3                	repz retq 
  400f8c:	0f 1f 40 00          	nopl   0x0(%rax)

0000000000400f90 <frame_dummy>:
  400f90:	bf 20 3e 60 00       	mov    $0x603e20,%edi
  400f95:	48 83 3f 00          	cmpq   $0x0,(%rdi)
  400f99:	75 05                	jne    400fa0 <frame_dummy+0x10>
  400f9b:	eb 93                	jmp    400f30 <register_tm_clones>
  400f9d:	0f 1f 00             	nopl   (%rax)
  400fa0:	b8 00 00 00 00       	mov    $0x0,%eax
  400fa5:	48 85 c0             	test   %rax,%rax
  400fa8:	74 f1                	je     400f9b <frame_dummy+0xb>
  400faa:	55                   	push   %rbp
  400fab:	48 89 e5             	mov    %rsp,%rbp
  400fae:	ff d0                	callq  *%rax
  400fb0:	5d                   	pop    %rbp
  400fb1:	e9 7a ff ff ff       	jmpq   400f30 <register_tm_clones>

0000000000400fb6 <usage>:
  400fb6:	48 83 ec 08          	sub    $0x8,%rsp
  400fba:	48 89 fa             	mov    %rdi,%rdx
  400fbd:	83 3d 64 35 20 00 00 	cmpl   $0x0,0x203564(%rip)        # 604528 <is_checker>
  400fc4:	74 3e                	je     401004 <usage+0x4e>
  400fc6:	be 98 2e 40 00       	mov    $0x402e98,%esi
  400fcb:	bf 01 00 00 00       	mov    $0x1,%edi
  400fd0:	b8 00 00 00 00       	mov    $0x0,%eax
  400fd5:	e8 46 fe ff ff       	callq  400e20 <__printf_chk@plt>
  400fda:	bf d0 2e 40 00       	mov    $0x402ed0,%edi
  400fdf:	e8 fc fc ff ff       	callq  400ce0 <puts@plt>
  400fe4:	bf 48 30 40 00       	mov    $0x403048,%edi
  400fe9:	e8 f2 fc ff ff       	callq  400ce0 <puts@plt>
  400fee:	bf f8 2e 40 00       	mov    $0x402ef8,%edi
  400ff3:	e8 e8 fc ff ff       	callq  400ce0 <puts@plt>
  400ff8:	bf 62 30 40 00       	mov    $0x403062,%edi
  400ffd:	e8 de fc ff ff       	callq  400ce0 <puts@plt>
  401002:	eb 32                	jmp    401036 <usage+0x80>
  401004:	be 7e 30 40 00       	mov    $0x40307e,%esi
  401009:	bf 01 00 00 00       	mov    $0x1,%edi
  40100e:	b8 00 00 00 00       	mov    $0x0,%eax
  401013:	e8 08 fe ff ff       	callq  400e20 <__printf_chk@plt>
  401018:	bf 20 2f 40 00       	mov    $0x402f20,%edi
  40101d:	e8 be fc ff ff       	callq  400ce0 <puts@plt>
  401022:	bf 48 2f 40 00       	mov    $0x402f48,%edi
  401027:	e8 b4 fc ff ff       	callq  400ce0 <puts@plt>
  40102c:	bf 9c 30 40 00       	mov    $0x40309c,%edi
  401031:	e8 aa fc ff ff       	callq  400ce0 <puts@plt>
  401036:	bf 00 00 00 00       	mov    $0x0,%edi
  40103b:	e8 30 fe ff ff       	callq  400e70 <exit@plt>

0000000000401040 <initialize_target>:
  401040:	55                   	push   %rbp
  401041:	53                   	push   %rbx
  401042:	48 81 ec 18 21 00 00 	sub    $0x2118,%rsp
  401049:	89 f5                	mov    %esi,%ebp
  40104b:	64 48 8b 04 25 28 00 	mov    %fs:0x28,%rax
  401052:	00 00 
  401054:	48 89 84 24 08 21 00 	mov    %rax,0x2108(%rsp)
  40105b:	00 
  40105c:	31 c0                	xor    %eax,%eax
  40105e:	89 3d b4 34 20 00    	mov    %edi,0x2034b4(%rip)        # 604518 <check_level>
  401064:	8b 3d fe 30 20 00    	mov    0x2030fe(%rip),%edi        # 604168 <target_id>
  40106a:	e8 7a 1d 00 00       	callq  402de9 <gencookie>
  40106f:	89 05 af 34 20 00    	mov    %eax,0x2034af(%rip)        # 604524 <cookie>
  401075:	89 c7                	mov    %eax,%edi
  401077:	e8 6d 1d 00 00       	callq  402de9 <gencookie>
  40107c:	89 05 9e 34 20 00    	mov    %eax,0x20349e(%rip)        # 604520 <authkey>
  401082:	8b 05 e0 30 20 00    	mov    0x2030e0(%rip),%eax        # 604168 <target_id>
  401088:	8d 78 01             	lea    0x1(%rax),%edi
  40108b:	e8 20 fc ff ff       	callq  400cb0 <srandom@plt>
  401090:	e8 4b fd ff ff       	callq  400de0 <random@plt>
  401095:	89 c7                	mov    %eax,%edi
  401097:	e8 03 03 00 00       	callq  40139f <scramble>
  40109c:	89 c3                	mov    %eax,%ebx
  40109e:	85 ed                	test   %ebp,%ebp
  4010a0:	74 18                	je     4010ba <initialize_target+0x7a>
  4010a2:	bf 00 00 00 00       	mov    $0x0,%edi
  4010a7:	e8 24 fd ff ff       	callq  400dd0 <time@plt>
  4010ac:	89 c7                	mov    %eax,%edi
  4010ae:	e8 fd fb ff ff       	callq  400cb0 <srandom@plt>
  4010b3:	e8 28 fd ff ff       	callq  400de0 <random@plt>
  4010b8:	eb 05                	jmp    4010bf <initialize_target+0x7f>
  4010ba:	b8 00 00 00 00       	mov    $0x0,%eax
  4010bf:	01 c3                	add    %eax,%ebx
  4010c1:	0f b7 db             	movzwl %bx,%ebx
  4010c4:	8d 04 dd 00 01 00 00 	lea    0x100(,%rbx,8),%eax
  4010cb:	89 c0                	mov    %eax,%eax
  4010cd:	48 89 05 cc 33 20 00 	mov    %rax,0x2033cc(%rip)        # 6044a0 <buf_offset>
  4010d4:	c6 05 6d 40 20 00 63 	movb   $0x63,0x20406d(%rip)        # 605148 <target_prefix>
  4010db:	83 3d c6 33 20 00 00 	cmpl   $0x0,0x2033c6(%rip)        # 6044a8 <notify>
  4010e2:	0f 84 bb 00 00 00    	je     4011a3 <initialize_target+0x163>
  4010e8:	83 3d 39 34 20 00 00 	cmpl   $0x0,0x203439(%rip)        # 604528 <is_checker>
  4010ef:	0f 85 ae 00 00 00    	jne    4011a3 <initialize_target+0x163>
  4010f5:	be 00 01 00 00       	mov    $0x100,%esi
  4010fa:	48 89 e7             	mov    %rsp,%rdi
  4010fd:	e8 5e fd ff ff       	callq  400e60 <gethostname@plt>
  401102:	85 c0                	test   %eax,%eax
  401104:	74 25                	je     40112b <initialize_target+0xeb>
  401106:	bf 78 2f 40 00       	mov    $0x402f78,%edi
  40110b:	e8 d0 fb ff ff       	callq  400ce0 <puts@plt>
  401110:	bf 08 00 00 00       	mov    $0x8,%edi
  401115:	e8 56 fd ff ff       	callq  400e70 <exit@plt>
  40111a:	48 89 e6             	mov    %rsp,%rsi
  40111d:	e8 6e fb ff ff       	callq  400c90 <strcasecmp@plt>
  401122:	85 c0                	test   %eax,%eax
  401124:	74 21                	je     401147 <initialize_target+0x107>
  401126:	83 c3 01             	add    $0x1,%ebx
  401129:	eb 05                	jmp    401130 <initialize_target+0xf0>
  40112b:	bb 00 00 00 00       	mov    $0x0,%ebx
  401130:	48 63 c3             	movslq %ebx,%rax
  401133:	48 8b 3c c5 80 41 60 	mov    0x604180(,%rax,8),%rdi
  40113a:	00 
  40113b:	48 85 ff             	test   %rdi,%rdi
  40113e:	75 da                	jne    40111a <initialize_target+0xda>
  401140:	b8 00 00 00 00       	mov    $0x0,%eax
  401145:	eb 05                	jmp    40114c <initialize_target+0x10c>
  401147:	b8 01 00 00 00       	mov    $0x1,%eax
  40114c:	85 c0                	test   %eax,%eax
  40114e:	75 1c                	jne    40116c <initialize_target+0x12c>
  401150:	48 89 e2             	mov    %rsp,%rdx
  401153:	be b0 2f 40 00       	mov    $0x402fb0,%esi
  401158:	bf 01 00 00 00       	mov    $0x1,%edi
  40115d:	e8 be fc ff ff       	callq  400e20 <__printf_chk@plt>
  401162:	bf 08 00 00 00       	mov    $0x8,%edi
  401167:	e8 04 fd ff ff       	callq  400e70 <exit@plt>
  40116c:	48 8d bc 24 00 01 00 	lea    0x100(%rsp),%rdi
  401173:	00 
  401174:	e8 da 19 00 00       	callq  402b53 <init_driver>
  401179:	85 c0                	test   %eax,%eax
  40117b:	79 26                	jns    4011a3 <initialize_target+0x163>
  40117d:	48 8d 94 24 00 01 00 	lea    0x100(%rsp),%rdx
  401184:	00 
  401185:	be f0 2f 40 00       	mov    $0x402ff0,%esi
  40118a:	bf 01 00 00 00       	mov    $0x1,%edi
  40118f:	b8 00 00 00 00       	mov    $0x0,%eax
  401194:	e8 87 fc ff ff       	callq  400e20 <__printf_chk@plt>
  401199:	bf 08 00 00 00       	mov    $0x8,%edi
  40119e:	e8 cd fc ff ff       	callq  400e70 <exit@plt>
  4011a3:	48 8b 84 24 08 21 00 	mov    0x2108(%rsp),%rax
  4011aa:	00 
  4011ab:	64 48 33 04 25 28 00 	xor    %fs:0x28,%rax
  4011b2:	00 00 
  4011b4:	74 05                	je     4011bb <initialize_target+0x17b>
  4011b6:	e8 45 fb ff ff       	callq  400d00 <__stack_chk_fail@plt>
  4011bb:	48 81 c4 18 21 00 00 	add    $0x2118,%rsp
  4011c2:	5b                   	pop    %rbx
  4011c3:	5d                   	pop    %rbp
  4011c4:	c3                   	retq   

00000000004011c5 <main>:
  4011c5:	41 56                	push   %r14
  4011c7:	41 55                	push   %r13
  4011c9:	41 54                	push   %r12
  4011cb:	55                   	push   %rbp
  4011cc:	53                   	push   %rbx
  4011cd:	41 89 fc             	mov    %edi,%r12d
  4011d0:	48 89 f3             	mov    %rsi,%rbx
  4011d3:	be 8e 1e 40 00       	mov    $0x401e8e,%esi
  4011d8:	bf 0b 00 00 00       	mov    $0xb,%edi
  4011dd:	e8 8e fb ff ff       	callq  400d70 <signal@plt>
  4011e2:	be 40 1e 40 00       	mov    $0x401e40,%esi
  4011e7:	bf 07 00 00 00       	mov    $0x7,%edi
  4011ec:	e8 7f fb ff ff       	callq  400d70 <signal@plt>
  4011f1:	be dc 1e 40 00       	mov    $0x401edc,%esi
  4011f6:	bf 04 00 00 00       	mov    $0x4,%edi
  4011fb:	e8 70 fb ff ff       	callq  400d70 <signal@plt>
  401200:	83 3d 21 33 20 00 00 	cmpl   $0x0,0x203321(%rip)        # 604528 <is_checker>
  401207:	74 20                	je     401229 <main+0x64>
  401209:	be 2a 1f 40 00       	mov    $0x401f2a,%esi
  40120e:	bf 0e 00 00 00       	mov    $0xe,%edi
  401213:	e8 58 fb ff ff       	callq  400d70 <signal@plt>
  401218:	bf 05 00 00 00       	mov    $0x5,%edi
  40121d:	e8 0e fb ff ff       	callq  400d30 <alarm@plt>
  401222:	bd ba 30 40 00       	mov    $0x4030ba,%ebp
  401227:	eb 05                	jmp    40122e <main+0x69>
  401229:	bd b5 30 40 00       	mov    $0x4030b5,%ebp
  40122e:	48 8b 05 8b 32 20 00 	mov    0x20328b(%rip),%rax        # 6044c0 <stdin@@GLIBC_2.2.5>
  401235:	48 89 05 d4 32 20 00 	mov    %rax,0x2032d4(%rip)        # 604510 <infile>
  40123c:	41 bd 00 00 00 00    	mov    $0x0,%r13d
  401242:	41 be 00 00 00 00    	mov    $0x0,%r14d
  401248:	e9 c6 00 00 00       	jmpq   401313 <main+0x14e>
  40124d:	83 e8 61             	sub    $0x61,%eax
  401250:	3c 10                	cmp    $0x10,%al
  401252:	0f 87 9c 00 00 00    	ja     4012f4 <main+0x12f>
  401258:	0f b6 c0             	movzbl %al,%eax
  40125b:	ff 24 c5 00 31 40 00 	jmpq   *0x403100(,%rax,8)
  401262:	48 8b 3b             	mov    (%rbx),%rdi
  401265:	e8 4c fd ff ff       	callq  400fb6 <usage>
  40126a:	be 7d 33 40 00       	mov    $0x40337d,%esi
  40126f:	48 8b 3d 52 32 20 00 	mov    0x203252(%rip),%rdi        # 6044c8 <optarg@@GLIBC_2.2.5>
  401276:	e8 b5 fb ff ff       	callq  400e30 <fopen@plt>
  40127b:	48 89 05 8e 32 20 00 	mov    %rax,0x20328e(%rip)        # 604510 <infile>
  401282:	48 85 c0             	test   %rax,%rax
  401285:	0f 85 88 00 00 00    	jne    401313 <main+0x14e>
  40128b:	48 8b 0d 36 32 20 00 	mov    0x203236(%rip),%rcx        # 6044c8 <optarg@@GLIBC_2.2.5>
  401292:	ba c2 30 40 00       	mov    $0x4030c2,%edx
  401297:	be 01 00 00 00       	mov    $0x1,%esi
  40129c:	48 8b 3d 3d 32 20 00 	mov    0x20323d(%rip),%rdi        # 6044e0 <stderr@@GLIBC_2.2.5>
  4012a3:	e8 e8 fb ff ff       	callq  400e90 <__fprintf_chk@plt>
  4012a8:	b8 01 00 00 00       	mov    $0x1,%eax
  4012ad:	e9 e4 00 00 00       	jmpq   401396 <main+0x1d1>
  4012b2:	ba 10 00 00 00       	mov    $0x10,%edx
  4012b7:	be 00 00 00 00       	mov    $0x0,%esi
  4012bc:	48 8b 3d 05 32 20 00 	mov    0x203205(%rip),%rdi        # 6044c8 <optarg@@GLIBC_2.2.5>
  4012c3:	e8 88 fb ff ff       	callq  400e50 <strtoul@plt>
  4012c8:	41 89 c6             	mov    %eax,%r14d
  4012cb:	eb 46                	jmp    401313 <main+0x14e>
  4012cd:	ba 0a 00 00 00       	mov    $0xa,%edx
  4012d2:	be 00 00 00 00       	mov    $0x0,%esi
  4012d7:	48 8b 3d ea 31 20 00 	mov    0x2031ea(%rip),%rdi        # 6044c8 <optarg@@GLIBC_2.2.5>
  4012de:	e8 cd fa ff ff       	callq  400db0 <strtol@plt>
  4012e3:	41 89 c5             	mov    %eax,%r13d
  4012e6:	eb 2b                	jmp    401313 <main+0x14e>
  4012e8:	c7 05 b6 31 20 00 00 	movl   $0x0,0x2031b6(%rip)        # 6044a8 <notify>
  4012ef:	00 00 00 
  4012f2:	eb 1f                	jmp    401313 <main+0x14e>
  4012f4:	0f be d2             	movsbl %dl,%edx
  4012f7:	be df 30 40 00       	mov    $0x4030df,%esi
  4012fc:	bf 01 00 00 00       	mov    $0x1,%edi
  401301:	b8 00 00 00 00       	mov    $0x0,%eax
  401306:	e8 15 fb ff ff       	callq  400e20 <__printf_chk@plt>
  40130b:	48 8b 3b             	mov    (%rbx),%rdi
  40130e:	e8 a3 fc ff ff       	callq  400fb6 <usage>
  401313:	48 89 ea             	mov    %rbp,%rdx
  401316:	48 89 de             	mov    %rbx,%rsi
  401319:	44 89 e7             	mov    %r12d,%edi
  40131c:	e8 1f fb ff ff       	callq  400e40 <getopt@plt>
  401321:	89 c2                	mov    %eax,%edx
  401323:	3c ff                	cmp    $0xff,%al
  401325:	0f 85 22 ff ff ff    	jne    40124d <main+0x88>
  40132b:	be 00 00 00 00       	mov    $0x0,%esi
  401330:	44 89 ef             	mov    %r13d,%edi
  401333:	e8 08 fd ff ff       	callq  401040 <initialize_target>
  401338:	83 3d e9 31 20 00 00 	cmpl   $0x0,0x2031e9(%rip)        # 604528 <is_checker>
  40133f:	74 2a                	je     40136b <main+0x1a6>
  401341:	44 3b 35 d8 31 20 00 	cmp    0x2031d8(%rip),%r14d        # 604520 <authkey>
  401348:	74 21                	je     40136b <main+0x1a6>
  40134a:	44 89 f2             	mov    %r14d,%edx
  40134d:	be 18 30 40 00       	mov    $0x403018,%esi
  401352:	bf 01 00 00 00       	mov    $0x1,%edi
  401357:	b8 00 00 00 00       	mov    $0x0,%eax
  40135c:	e8 bf fa ff ff       	callq  400e20 <__printf_chk@plt>
  401361:	b8 00 00 00 00       	mov    $0x0,%eax
  401366:	e8 71 07 00 00       	callq  401adc <check_fail>
  40136b:	8b 15 b3 31 20 00    	mov    0x2031b3(%rip),%edx        # 604524 <cookie>
  401371:	be f2 30 40 00       	mov    $0x4030f2,%esi
  401376:	bf 01 00 00 00       	mov    $0x1,%edi
  40137b:	b8 00 00 00 00       	mov    $0x0,%eax
  401380:	e8 9b fa ff ff       	callq  400e20 <__printf_chk@plt>
  401385:	48 8b 3d 14 31 20 00 	mov    0x203114(%rip),%rdi        # 6044a0 <buf_offset>
  40138c:	e8 99 0c 00 00       	callq  40202a <stable_launch>
  401391:	b8 00 00 00 00       	mov    $0x0,%eax
  401396:	5b                   	pop    %rbx
  401397:	5d                   	pop    %rbp
  401398:	41 5c                	pop    %r12
  40139a:	41 5d                	pop    %r13
  40139c:	41 5e                	pop    %r14
  40139e:	c3                   	retq   

000000000040139f <scramble>:
  40139f:	48 83 ec 38          	sub    $0x38,%rsp
  4013a3:	64 48 8b 04 25 28 00 	mov    %fs:0x28,%rax
  4013aa:	00 00 
  4013ac:	48 89 44 24 28       	mov    %rax,0x28(%rsp)
  4013b1:	31 c0                	xor    %eax,%eax
  4013b3:	eb 10                	jmp    4013c5 <scramble+0x26>
  4013b5:	69 d0 fa bb 00 00    	imul   $0xbbfa,%eax,%edx
  4013bb:	01 fa                	add    %edi,%edx
  4013bd:	89 c1                	mov    %eax,%ecx
  4013bf:	89 14 8c             	mov    %edx,(%rsp,%rcx,4)
  4013c2:	83 c0 01             	add    $0x1,%eax
  4013c5:	83 f8 09             	cmp    $0x9,%eax
  4013c8:	76 eb                	jbe    4013b5 <scramble+0x16>
  4013ca:	8b 44 24 14          	mov    0x14(%rsp),%eax
  4013ce:	69 c0 10 75 00 00    	imul   $0x7510,%eax,%eax
  4013d4:	89 44 24 14          	mov    %eax,0x14(%rsp)
  4013d8:	8b 44 24 08          	mov    0x8(%rsp),%eax
  4013dc:	69 c0 85 ec 00 00    	imul   $0xec85,%eax,%eax
  4013e2:	89 44 24 08          	mov    %eax,0x8(%rsp)
  4013e6:	8b 44 24 0c          	mov    0xc(%rsp),%eax
  4013ea:	69 c0 36 27 00 00    	imul   $0x2736,%eax,%eax
  4013f0:	89 44 24 0c          	mov    %eax,0xc(%rsp)
  4013f4:	8b 44 24 08          	mov    0x8(%rsp),%eax
  4013f8:	69 c0 f1 d3 00 00    	imul   $0xd3f1,%eax,%eax
  4013fe:	89 44 24 08          	mov    %eax,0x8(%rsp)
  401402:	8b 44 24 20          	mov    0x20(%rsp),%eax
  401406:	69 c0 63 1e 00 00    	imul   $0x1e63,%eax,%eax
  40140c:	89 44 24 20          	mov    %eax,0x20(%rsp)
  401410:	8b 04 24             	mov    (%rsp),%eax
  401413:	69 c0 99 75 00 00    	imul   $0x7599,%eax,%eax
  401419:	89 04 24             	mov    %eax,(%rsp)
  40141c:	8b 04 24             	mov    (%rsp),%eax
  40141f:	69 c0 14 da 00 00    	imul   $0xda14,%eax,%eax
  401425:	89 04 24             	mov    %eax,(%rsp)
  401428:	8b 04 24             	mov    (%rsp),%eax
  40142b:	69 c0 ab 55 00 00    	imul   $0x55ab,%eax,%eax
  401431:	89 04 24             	mov    %eax,(%rsp)
  401434:	8b 44 24 24          	mov    0x24(%rsp),%eax
  401438:	69 c0 61 ed 00 00    	imul   $0xed61,%eax,%eax
  40143e:	89 44 24 24          	mov    %eax,0x24(%rsp)
  401442:	8b 44 24 20          	mov    0x20(%rsp),%eax
  401446:	69 c0 21 6a 00 00    	imul   $0x6a21,%eax,%eax
  40144c:	89 44 24 20          	mov    %eax,0x20(%rsp)
  401450:	8b 44 24 20          	mov    0x20(%rsp),%eax
  401454:	69 c0 4c 4c 00 00    	imul   $0x4c4c,%eax,%eax
  40145a:	89 44 24 20          	mov    %eax,0x20(%rsp)
  40145e:	8b 44 24 24          	mov    0x24(%rsp),%eax
  401462:	69 c0 d7 a7 00 00    	imul   $0xa7d7,%eax,%eax
  401468:	89 44 24 24          	mov    %eax,0x24(%rsp)
  40146c:	8b 44 24 1c          	mov    0x1c(%rsp),%eax
  401470:	69 c0 f2 b7 00 00    	imul   $0xb7f2,%eax,%eax
  401476:	89 44 24 1c          	mov    %eax,0x1c(%rsp)
  40147a:	8b 04 24             	mov    (%rsp),%eax
  40147d:	69 c0 0e e6 00 00    	imul   $0xe60e,%eax,%eax
  401483:	89 04 24             	mov    %eax,(%rsp)
  401486:	8b 44 24 10          	mov    0x10(%rsp),%eax
  40148a:	69 c0 5f f0 00 00    	imul   $0xf05f,%eax,%eax
  401490:	89 44 24 10          	mov    %eax,0x10(%rsp)
  401494:	8b 44 24 14          	mov    0x14(%rsp),%eax
  401498:	69 c0 be a1 00 00    	imul   $0xa1be,%eax,%eax
  40149e:	89 44 24 14          	mov    %eax,0x14(%rsp)
  4014a2:	8b 44 24 0c          	mov    0xc(%rsp),%eax
  4014a6:	69 c0 97 d4 00 00    	imul   $0xd497,%eax,%eax
  4014ac:	89 44 24 0c          	mov    %eax,0xc(%rsp)
  4014b0:	8b 44 24 08          	mov    0x8(%rsp),%eax
  4014b4:	69 c0 e2 f1 00 00    	imul   $0xf1e2,%eax,%eax
  4014ba:	89 44 24 08          	mov    %eax,0x8(%rsp)
  4014be:	8b 44 24 24          	mov    0x24(%rsp),%eax
  4014c2:	69 c0 b4 ba 00 00    	imul   $0xbab4,%eax,%eax
  4014c8:	89 44 24 24          	mov    %eax,0x24(%rsp)
  4014cc:	8b 04 24             	mov    (%rsp),%eax
  4014cf:	69 c0 3a 06 00 00    	imul   $0x63a,%eax,%eax
  4014d5:	89 04 24             	mov    %eax,(%rsp)
  4014d8:	8b 44 24 1c          	mov    0x1c(%rsp),%eax
  4014dc:	69 c0 66 bb 00 00    	imul   $0xbb66,%eax,%eax
  4014e2:	89 44 24 1c          	mov    %eax,0x1c(%rsp)
  4014e6:	8b 44 24 08          	mov    0x8(%rsp),%eax
  4014ea:	69 c0 b8 b9 00 00    	imul   $0xb9b8,%eax,%eax
  4014f0:	89 44 24 08          	mov    %eax,0x8(%rsp)
  4014f4:	8b 44 24 1c          	mov    0x1c(%rsp),%eax
  4014f8:	69 c0 6f 51 00 00    	imul   $0x516f,%eax,%eax
  4014fe:	89 44 24 1c          	mov    %eax,0x1c(%rsp)
  401502:	8b 44 24 18          	mov    0x18(%rsp),%eax
  401506:	69 c0 6d c5 00 00    	imul   $0xc56d,%eax,%eax
  40150c:	89 44 24 18          	mov    %eax,0x18(%rsp)
  401510:	8b 04 24             	mov    (%rsp),%eax
  401513:	69 c0 f4 c1 00 00    	imul   $0xc1f4,%eax,%eax
  401519:	89 04 24             	mov    %eax,(%rsp)
  40151c:	8b 44 24 20          	mov    0x20(%rsp),%eax
  401520:	69 c0 88 f2 00 00    	imul   $0xf288,%eax,%eax
  401526:	89 44 24 20          	mov    %eax,0x20(%rsp)
  40152a:	8b 44 24 14          	mov    0x14(%rsp),%eax
  40152e:	69 c0 a7 d5 00 00    	imul   $0xd5a7,%eax,%eax
  401534:	89 44 24 14          	mov    %eax,0x14(%rsp)
  401538:	8b 44 24 04          	mov    0x4(%rsp),%eax
  40153c:	69 c0 a0 4e 00 00    	imul   $0x4ea0,%eax,%eax
  401542:	89 44 24 04          	mov    %eax,0x4(%rsp)
  401546:	8b 04 24             	mov    (%rsp),%eax
  401549:	69 c0 c4 ce 00 00    	imul   $0xcec4,%eax,%eax
  40154f:	89 04 24             	mov    %eax,(%rsp)
  401552:	8b 44 24 1c          	mov    0x1c(%rsp),%eax
  401556:	69 c0 5e 73 00 00    	imul   $0x735e,%eax,%eax
  40155c:	89 44 24 1c          	mov    %eax,0x1c(%rsp)
  401560:	8b 44 24 10          	mov    0x10(%rsp),%eax
  401564:	69 c0 f6 70 00 00    	imul   $0x70f6,%eax,%eax
  40156a:	89 44 24 10          	mov    %eax,0x10(%rsp)
  40156e:	8b 44 24 18          	mov    0x18(%rsp),%eax
  401572:	69 c0 93 24 00 00    	imul   $0x2493,%eax,%eax
  401578:	89 44 24 18          	mov    %eax,0x18(%rsp)
  40157c:	8b 44 24 1c          	mov    0x1c(%rsp),%eax
  401580:	69 c0 60 a3 00 00    	imul   $0xa360,%eax,%eax
  401586:	89 44 24 1c          	mov    %eax,0x1c(%rsp)
  40158a:	8b 44 24 20          	mov    0x20(%rsp),%eax
  40158e:	69 c0 5c 41 00 00    	imul   $0x415c,%eax,%eax
  401594:	89 44 24 20          	mov    %eax,0x20(%rsp)
  401598:	8b 44 24 10          	mov    0x10(%rsp),%eax
  40159c:	69 c0 48 dc 00 00    	imul   $0xdc48,%eax,%eax
  4015a2:	89 44 24 10          	mov    %eax,0x10(%rsp)
  4015a6:	8b 44 24 20          	mov    0x20(%rsp),%eax
  4015aa:	69 c0 2c 37 00 00    	imul   $0x372c,%eax,%eax
  4015b0:	89 44 24 20          	mov    %eax,0x20(%rsp)
  4015b4:	8b 04 24             	mov    (%rsp),%eax
  4015b7:	69 c0 69 c3 00 00    	imul   $0xc369,%eax,%eax
  4015bd:	89 04 24             	mov    %eax,(%rsp)
  4015c0:	8b 44 24 08          	mov    0x8(%rsp),%eax
  4015c4:	69 c0 29 2d 00 00    	imul   $0x2d29,%eax,%eax
  4015ca:	89 44 24 08          	mov    %eax,0x8(%rsp)
  4015ce:	8b 44 24 10          	mov    0x10(%rsp),%eax
  4015d2:	8d 14 c0             	lea    (%rax,%rax,8),%edx
  4015d5:	8d 04 d5 00 00 00 00 	lea    0x0(,%rdx,8),%eax
  4015dc:	89 44 24 10          	mov    %eax,0x10(%rsp)
  4015e0:	8b 44 24 18          	mov    0x18(%rsp),%eax
  4015e4:	69 c0 a8 53 00 00    	imul   $0x53a8,%eax,%eax
  4015ea:	89 44 24 18          	mov    %eax,0x18(%rsp)
  4015ee:	8b 44 24 1c          	mov    0x1c(%rsp),%eax
  4015f2:	69 c0 24 22 00 00    	imul   $0x2224,%eax,%eax
  4015f8:	89 44 24 1c          	mov    %eax,0x1c(%rsp)
  4015fc:	8b 44 24 1c          	mov    0x1c(%rsp),%eax
  401600:	69 c0 7d d0 00 00    	imul   $0xd07d,%eax,%eax
  401606:	89 44 24 1c          	mov    %eax,0x1c(%rsp)
  40160a:	8b 44 24 1c          	mov    0x1c(%rsp),%eax
  40160e:	69 c0 90 e0 00 00    	imul   $0xe090,%eax,%eax
  401614:	89 44 24 1c          	mov    %eax,0x1c(%rsp)
  401618:	8b 44 24 24          	mov    0x24(%rsp),%eax
  40161c:	69 c0 65 85 00 00    	imul   $0x8565,%eax,%eax
  401622:	89 44 24 24          	mov    %eax,0x24(%rsp)
  401626:	8b 44 24 14          	mov    0x14(%rsp),%eax
  40162a:	69 c0 cb 53 00 00    	imul   $0x53cb,%eax,%eax
  401630:	89 44 24 14          	mov    %eax,0x14(%rsp)
  401634:	8b 44 24 10          	mov    0x10(%rsp),%eax
  401638:	69 c0 78 6e 00 00    	imul   $0x6e78,%eax,%eax
  40163e:	89 44 24 10          	mov    %eax,0x10(%rsp)
  401642:	8b 44 24 0c          	mov    0xc(%rsp),%eax
  401646:	69 c0 df 0d 00 00    	imul   $0xddf,%eax,%eax
  40164c:	89 44 24 0c          	mov    %eax,0xc(%rsp)
  401650:	8b 44 24 04          	mov    0x4(%rsp),%eax
  401654:	69 c0 50 0a 00 00    	imul   $0xa50,%eax,%eax
  40165a:	89 44 24 04          	mov    %eax,0x4(%rsp)
  40165e:	8b 04 24             	mov    (%rsp),%eax
  401661:	69 c0 80 a9 00 00    	imul   $0xa980,%eax,%eax
  401667:	89 04 24             	mov    %eax,(%rsp)
  40166a:	8b 44 24 04          	mov    0x4(%rsp),%eax
  40166e:	69 c0 54 0f 00 00    	imul   $0xf54,%eax,%eax
  401674:	89 44 24 04          	mov    %eax,0x4(%rsp)
  401678:	8b 44 24 08          	mov    0x8(%rsp),%eax
  40167c:	69 c0 42 93 00 00    	imul   $0x9342,%eax,%eax
  401682:	89 44 24 08          	mov    %eax,0x8(%rsp)
  401686:	8b 44 24 24          	mov    0x24(%rsp),%eax
  40168a:	69 c0 77 1d 00 00    	imul   $0x1d77,%eax,%eax
  401690:	89 44 24 24          	mov    %eax,0x24(%rsp)
  401694:	8b 44 24 08          	mov    0x8(%rsp),%eax
  401698:	69 c0 65 37 00 00    	imul   $0x3765,%eax,%eax
  40169e:	89 44 24 08          	mov    %eax,0x8(%rsp)
  4016a2:	8b 44 24 14          	mov    0x14(%rsp),%eax
  4016a6:	69 c0 83 6b 00 00    	imul   $0x6b83,%eax,%eax
  4016ac:	89 44 24 14          	mov    %eax,0x14(%rsp)
  4016b0:	8b 44 24 14          	mov    0x14(%rsp),%eax
  4016b4:	69 c0 36 3d 00 00    	imul   $0x3d36,%eax,%eax
  4016ba:	89 44 24 14          	mov    %eax,0x14(%rsp)
  4016be:	8b 44 24 14          	mov    0x14(%rsp),%eax
  4016c2:	69 c0 e9 f9 00 00    	imul   $0xf9e9,%eax,%eax
  4016c8:	89 44 24 14          	mov    %eax,0x14(%rsp)
  4016cc:	8b 44 24 20          	mov    0x20(%rsp),%eax
  4016d0:	69 c0 5c 05 00 00    	imul   $0x55c,%eax,%eax
  4016d6:	89 44 24 20          	mov    %eax,0x20(%rsp)
  4016da:	8b 44 24 24          	mov    0x24(%rsp),%eax
  4016de:	69 c0 26 57 00 00    	imul   $0x5726,%eax,%eax
  4016e4:	89 44 24 24          	mov    %eax,0x24(%rsp)
  4016e8:	8b 44 24 14          	mov    0x14(%rsp),%eax
  4016ec:	69 c0 83 e9 00 00    	imul   $0xe983,%eax,%eax
  4016f2:	89 44 24 14          	mov    %eax,0x14(%rsp)
  4016f6:	8b 44 24 1c          	mov    0x1c(%rsp),%eax
  4016fa:	69 c0 42 95 00 00    	imul   $0x9542,%eax,%eax
  401700:	89 44 24 1c          	mov    %eax,0x1c(%rsp)
  401704:	8b 44 24 20          	mov    0x20(%rsp),%eax
  401708:	69 c0 4e d5 00 00    	imul   $0xd54e,%eax,%eax
  40170e:	89 44 24 20          	mov    %eax,0x20(%rsp)
  401712:	8b 44 24 18          	mov    0x18(%rsp),%eax
  401716:	69 c0 11 02 00 00    	imul   $0x211,%eax,%eax
  40171c:	89 44 24 18          	mov    %eax,0x18(%rsp)
  401720:	8b 44 24 14          	mov    0x14(%rsp),%eax
  401724:	69 c0 c6 96 00 00    	imul   $0x96c6,%eax,%eax
  40172a:	89 44 24 14          	mov    %eax,0x14(%rsp)
  40172e:	8b 44 24 18          	mov    0x18(%rsp),%eax
  401732:	69 c0 6d 94 00 00    	imul   $0x946d,%eax,%eax
  401738:	89 44 24 18          	mov    %eax,0x18(%rsp)
  40173c:	8b 44 24 24          	mov    0x24(%rsp),%eax
  401740:	69 c0 0d 58 00 00    	imul   $0x580d,%eax,%eax
  401746:	89 44 24 24          	mov    %eax,0x24(%rsp)
  40174a:	8b 44 24 04          	mov    0x4(%rsp),%eax
  40174e:	69 c0 0f c6 00 00    	imul   $0xc60f,%eax,%eax
  401754:	89 44 24 04          	mov    %eax,0x4(%rsp)
  401758:	8b 44 24 1c          	mov    0x1c(%rsp),%eax
  40175c:	69 c0 42 ea 00 00    	imul   $0xea42,%eax,%eax
  401762:	89 44 24 1c          	mov    %eax,0x1c(%rsp)
  401766:	8b 44 24 24          	mov    0x24(%rsp),%eax
  40176a:	69 c0 fa 41 00 00    	imul   $0x41fa,%eax,%eax
  401770:	89 44 24 24          	mov    %eax,0x24(%rsp)
  401774:	8b 44 24 1c          	mov    0x1c(%rsp),%eax
  401778:	69 c0 27 2e 00 00    	imul   $0x2e27,%eax,%eax
  40177e:	89 44 24 1c          	mov    %eax,0x1c(%rsp)
  401782:	8b 04 24             	mov    (%rsp),%eax
  401785:	69 c0 54 59 00 00    	imul   $0x5954,%eax,%eax
  40178b:	89 04 24             	mov    %eax,(%rsp)
  40178e:	8b 44 24 14          	mov    0x14(%rsp),%eax
  401792:	69 c0 a8 6c 00 00    	imul   $0x6ca8,%eax,%eax
  401798:	89 44 24 14          	mov    %eax,0x14(%rsp)
  40179c:	8b 44 24 1c          	mov    0x1c(%rsp),%eax
  4017a0:	69 c0 b9 ca 00 00    	imul   $0xcab9,%eax,%eax
  4017a6:	89 44 24 1c          	mov    %eax,0x1c(%rsp)
  4017aa:	8b 44 24 04          	mov    0x4(%rsp),%eax
  4017ae:	69 c0 a4 1d 00 00    	imul   $0x1da4,%eax,%eax
  4017b4:	89 44 24 04          	mov    %eax,0x4(%rsp)
  4017b8:	8b 44 24 14          	mov    0x14(%rsp),%eax
  4017bc:	69 c0 f2 57 00 00    	imul   $0x57f2,%eax,%eax
  4017c2:	89 44 24 14          	mov    %eax,0x14(%rsp)
  4017c6:	8b 44 24 18          	mov    0x18(%rsp),%eax
  4017ca:	69 c0 6b fe 00 00    	imul   $0xfe6b,%eax,%eax
  4017d0:	89 44 24 18          	mov    %eax,0x18(%rsp)
  4017d4:	8b 44 24 04          	mov    0x4(%rsp),%eax
  4017d8:	69 c0 76 44 00 00    	imul   $0x4476,%eax,%eax
  4017de:	89 44 24 04          	mov    %eax,0x4(%rsp)
  4017e2:	8b 44 24 1c          	mov    0x1c(%rsp),%eax
  4017e6:	69 c0 ee f0 00 00    	imul   $0xf0ee,%eax,%eax
  4017ec:	89 44 24 1c          	mov    %eax,0x1c(%rsp)
  4017f0:	8b 44 24 20          	mov    0x20(%rsp),%eax
  4017f4:	69 c0 e7 b6 00 00    	imul   $0xb6e7,%eax,%eax
  4017fa:	89 44 24 20          	mov    %eax,0x20(%rsp)
  4017fe:	8b 44 24 1c          	mov    0x1c(%rsp),%eax
  401802:	69 c0 e8 52 00 00    	imul   $0x52e8,%eax,%eax
  401808:	89 44 24 1c          	mov    %eax,0x1c(%rsp)
  40180c:	8b 44 24 24          	mov    0x24(%rsp),%eax
  401810:	69 c0 fb c7 00 00    	imul   $0xc7fb,%eax,%eax
  401816:	89 44 24 24          	mov    %eax,0x24(%rsp)
  40181a:	8b 44 24 10          	mov    0x10(%rsp),%eax
  40181e:	69 c0 16 ef 00 00    	imul   $0xef16,%eax,%eax
  401824:	89 44 24 10          	mov    %eax,0x10(%rsp)
  401828:	8b 44 24 08          	mov    0x8(%rsp),%eax
  40182c:	69 c0 44 96 00 00    	imul   $0x9644,%eax,%eax
  401832:	89 44 24 08          	mov    %eax,0x8(%rsp)
  401836:	8b 44 24 18          	mov    0x18(%rsp),%eax
  40183a:	69 c0 91 71 00 00    	imul   $0x7191,%eax,%eax
  401840:	89 44 24 18          	mov    %eax,0x18(%rsp)
  401844:	8b 44 24 14          	mov    0x14(%rsp),%eax
  401848:	69 c0 ff fa 00 00    	imul   $0xfaff,%eax,%eax
  40184e:	89 44 24 14          	mov    %eax,0x14(%rsp)
  401852:	ba 00 00 00 00       	mov    $0x0,%edx
  401857:	b8 00 00 00 00       	mov    $0x0,%eax
  40185c:	eb 0a                	jmp    401868 <scramble+0x4c9>
  40185e:	89 d1                	mov    %edx,%ecx
  401860:	8b 0c 8c             	mov    (%rsp,%rcx,4),%ecx
  401863:	01 c8                	add    %ecx,%eax
  401865:	83 c2 01             	add    $0x1,%edx
  401868:	83 fa 09             	cmp    $0x9,%edx
  40186b:	76 f1                	jbe    40185e <scramble+0x4bf>
  40186d:	48 8b 74 24 28       	mov    0x28(%rsp),%rsi
  401872:	64 48 33 34 25 28 00 	xor    %fs:0x28,%rsi
  401879:	00 00 
  40187b:	74 05                	je     401882 <scramble+0x4e3>
  40187d:	e8 7e f4 ff ff       	callq  400d00 <__stack_chk_fail@plt>
  401882:	48 83 c4 38          	add    $0x38,%rsp
  401886:	c3                   	retq   

0000000000401887 <getbuf>:
  401887:	48 83 ec 38          	sub    $0x38,%rsp
  40188b:	48 89 e7             	mov    %rsp,%rdi
  40188e:	e8 7e 02 00 00       	callq  401b11 <Gets>
  401893:	b8 01 00 00 00       	mov    $0x1,%eax
  401898:	48 83 c4 38          	add    $0x38,%rsp
  40189c:	c3                   	retq   

000000000040189d <touch1>:
  40189d:	48 83 ec 08          	sub    $0x8,%rsp
  4018a1:	c7 05 71 2c 20 00 01 	movl   $0x1,0x202c71(%rip)        # 60451c <vlevel>
  4018a8:	00 00 00 
  4018ab:	bf d3 31 40 00       	mov    $0x4031d3,%edi
  4018b0:	e8 2b f4 ff ff       	callq  400ce0 <puts@plt>
  4018b5:	bf 01 00 00 00       	mov    $0x1,%edi
  4018ba:	e8 97 04 00 00       	callq  401d56 <validate>
  4018bf:	bf 00 00 00 00       	mov    $0x0,%edi
  4018c4:	e8 a7 f5 ff ff       	callq  400e70 <exit@plt>

00000000004018c9 <touch2>:
  4018c9:	48 83 ec 08          	sub    $0x8,%rsp
  4018cd:	89 fa                	mov    %edi,%edx
  4018cf:	c7 05 43 2c 20 00 02 	movl   $0x2,0x202c43(%rip)        # 60451c <vlevel>
  4018d6:	00 00 00 
  4018d9:	39 3d 45 2c 20 00    	cmp    %edi,0x202c45(%rip)        # 604524 <cookie>
  4018df:	75 20                	jne    401901 <touch2+0x38>
  4018e1:	be f8 31 40 00       	mov    $0x4031f8,%esi
  4018e6:	bf 01 00 00 00       	mov    $0x1,%edi
  4018eb:	b8 00 00 00 00       	mov    $0x0,%eax
  4018f0:	e8 2b f5 ff ff       	callq  400e20 <__printf_chk@plt>
  4018f5:	bf 02 00 00 00       	mov    $0x2,%edi
  4018fa:	e8 57 04 00 00       	callq  401d56 <validate>
  4018ff:	eb 1e                	jmp    40191f <touch2+0x56>
  401901:	be 20 32 40 00       	mov    $0x403220,%esi
  401906:	bf 01 00 00 00       	mov    $0x1,%edi
  40190b:	b8 00 00 00 00       	mov    $0x0,%eax
  401910:	e8 0b f5 ff ff       	callq  400e20 <__printf_chk@plt>
  401915:	bf 02 00 00 00       	mov    $0x2,%edi
  40191a:	e8 f9 04 00 00       	callq  401e18 <fail>
  40191f:	bf 00 00 00 00       	mov    $0x0,%edi
  401924:	e8 47 f5 ff ff       	callq  400e70 <exit@plt>

0000000000401929 <hexmatch>:
  401929:	41 54                	push   %r12
  40192b:	55                   	push   %rbp
  40192c:	53                   	push   %rbx
  40192d:	48 83 c4 80          	add    $0xffffffffffffff80,%rsp
  401931:	89 fd                	mov    %edi,%ebp
  401933:	48 89 f3             	mov    %rsi,%rbx
  401936:	64 48 8b 04 25 28 00 	mov    %fs:0x28,%rax
  40193d:	00 00 
  40193f:	48 89 44 24 78       	mov    %rax,0x78(%rsp)
  401944:	31 c0                	xor    %eax,%eax
  401946:	e8 95 f4 ff ff       	callq  400de0 <random@plt>
  40194b:	48 89 c1             	mov    %rax,%rcx
  40194e:	48 ba 0b d7 a3 70 3d 	movabs $0xa3d70a3d70a3d70b,%rdx
  401955:	0a d7 a3 
  401958:	48 f7 ea             	imul   %rdx
  40195b:	48 01 ca             	add    %rcx,%rdx
  40195e:	48 c1 fa 06          	sar    $0x6,%rdx
  401962:	48 89 c8             	mov    %rcx,%rax
  401965:	48 c1 f8 3f          	sar    $0x3f,%rax
  401969:	48 29 c2             	sub    %rax,%rdx
  40196c:	48 8d 04 92          	lea    (%rdx,%rdx,4),%rax
  401970:	48 8d 14 80          	lea    (%rax,%rax,4),%rdx
  401974:	48 8d 04 95 00 00 00 	lea    0x0(,%rdx,4),%rax
  40197b:	00 
  40197c:	48 29 c1             	sub    %rax,%rcx
  40197f:	4c 8d 24 0c          	lea    (%rsp,%rcx,1),%r12
  401983:	41 89 e8             	mov    %ebp,%r8d
  401986:	b9 f0 31 40 00       	mov    $0x4031f0,%ecx
  40198b:	48 c7 c2 ff ff ff ff 	mov    $0xffffffffffffffff,%rdx
  401992:	be 01 00 00 00       	mov    $0x1,%esi
  401997:	4c 89 e7             	mov    %r12,%rdi
  40199a:	b8 00 00 00 00       	mov    $0x0,%eax
  40199f:	e8 fc f4 ff ff       	callq  400ea0 <__sprintf_chk@plt>
  4019a4:	ba 09 00 00 00       	mov    $0x9,%edx
  4019a9:	4c 89 e6             	mov    %r12,%rsi
  4019ac:	48 89 df             	mov    %rbx,%rdi
  4019af:	e8 0c f3 ff ff       	callq  400cc0 <strncmp@plt>
  4019b4:	85 c0                	test   %eax,%eax
  4019b6:	0f 94 c0             	sete   %al
  4019b9:	48 8b 5c 24 78       	mov    0x78(%rsp),%rbx
  4019be:	64 48 33 1c 25 28 00 	xor    %fs:0x28,%rbx
  4019c5:	00 00 
  4019c7:	74 05                	je     4019ce <hexmatch+0xa5>
  4019c9:	e8 32 f3 ff ff       	callq  400d00 <__stack_chk_fail@plt>
  4019ce:	0f b6 c0             	movzbl %al,%eax
  4019d1:	48 83 ec 80          	sub    $0xffffffffffffff80,%rsp
  4019d5:	5b                   	pop    %rbx
  4019d6:	5d                   	pop    %rbp
  4019d7:	41 5c                	pop    %r12
  4019d9:	c3                   	retq   

00000000004019da <touch3>:
  4019da:	53                   	push   %rbx
  4019db:	48 89 fb             	mov    %rdi,%rbx
  4019de:	c7 05 34 2b 20 00 03 	movl   $0x3,0x202b34(%rip)        # 60451c <vlevel>
  4019e5:	00 00 00 
  4019e8:	48 89 fe             	mov    %rdi,%rsi
  4019eb:	8b 3d 33 2b 20 00    	mov    0x202b33(%rip),%edi        # 604524 <cookie>
  4019f1:	e8 33 ff ff ff       	callq  401929 <hexmatch>
  4019f6:	85 c0                	test   %eax,%eax
  4019f8:	74 23                	je     401a1d <touch3+0x43>
  4019fa:	48 89 da             	mov    %rbx,%rdx
  4019fd:	be 48 32 40 00       	mov    $0x403248,%esi
  401a02:	bf 01 00 00 00       	mov    $0x1,%edi
  401a07:	b8 00 00 00 00       	mov    $0x0,%eax
  401a0c:	e8 0f f4 ff ff       	callq  400e20 <__printf_chk@plt>
  401a11:	bf 03 00 00 00       	mov    $0x3,%edi
  401a16:	e8 3b 03 00 00       	callq  401d56 <validate>
  401a1b:	eb 21                	jmp    401a3e <touch3+0x64>
  401a1d:	48 89 da             	mov    %rbx,%rdx
  401a20:	be 70 32 40 00       	mov    $0x403270,%esi
  401a25:	bf 01 00 00 00       	mov    $0x1,%edi
  401a2a:	b8 00 00 00 00       	mov    $0x0,%eax
  401a2f:	e8 ec f3 ff ff       	callq  400e20 <__printf_chk@plt>
  401a34:	bf 03 00 00 00       	mov    $0x3,%edi
  401a39:	e8 da 03 00 00       	callq  401e18 <fail>
  401a3e:	bf 00 00 00 00       	mov    $0x0,%edi
  401a43:	e8 28 f4 ff ff       	callq  400e70 <exit@plt>

0000000000401a48 <test>:
  401a48:	48 83 ec 08          	sub    $0x8,%rsp
  401a4c:	b8 00 00 00 00       	mov    $0x0,%eax
  401a51:	e8 31 fe ff ff       	callq  401887 <getbuf>
  401a56:	89 c2                	mov    %eax,%edx
  401a58:	be 98 32 40 00       	mov    $0x403298,%esi
  401a5d:	bf 01 00 00 00       	mov    $0x1,%edi
  401a62:	b8 00 00 00 00       	mov    $0x0,%eax
  401a67:	e8 b4 f3 ff ff       	callq  400e20 <__printf_chk@plt>
  401a6c:	48 83 c4 08          	add    $0x8,%rsp
  401a70:	c3                   	retq   

0000000000401a71 <save_char>:
  401a71:	8b 05 cd 36 20 00    	mov    0x2036cd(%rip),%eax        # 605144 <gets_cnt>
  401a77:	3d ff 03 00 00       	cmp    $0x3ff,%eax
  401a7c:	7f 49                	jg     401ac7 <save_char+0x56>
  401a7e:	8d 14 40             	lea    (%rax,%rax,2),%edx
  401a81:	89 f9                	mov    %edi,%ecx
  401a83:	c0 e9 04             	shr    $0x4,%cl
  401a86:	83 e1 0f             	and    $0xf,%ecx
  401a89:	0f b6 b1 c0 35 40 00 	movzbl 0x4035c0(%rcx),%esi
  401a90:	48 63 ca             	movslq %edx,%rcx
  401a93:	40 88 b1 40 45 60 00 	mov    %sil,0x604540(%rcx)
  401a9a:	8d 4a 01             	lea    0x1(%rdx),%ecx
  401a9d:	83 e7 0f             	and    $0xf,%edi
  401aa0:	0f b6 b7 c0 35 40 00 	movzbl 0x4035c0(%rdi),%esi
  401aa7:	48 63 c9             	movslq %ecx,%rcx
  401aaa:	40 88 b1 40 45 60 00 	mov    %sil,0x604540(%rcx)
  401ab1:	83 c2 02             	add    $0x2,%edx
  401ab4:	48 63 d2             	movslq %edx,%rdx
  401ab7:	c6 82 40 45 60 00 20 	movb   $0x20,0x604540(%rdx)
  401abe:	83 c0 01             	add    $0x1,%eax
  401ac1:	89 05 7d 36 20 00    	mov    %eax,0x20367d(%rip)        # 605144 <gets_cnt>
  401ac7:	f3 c3                	repz retq 

0000000000401ac9 <save_term>:
  401ac9:	8b 05 75 36 20 00    	mov    0x203675(%rip),%eax        # 605144 <gets_cnt>
  401acf:	8d 04 40             	lea    (%rax,%rax,2),%eax
  401ad2:	48 98                	cltq   
  401ad4:	c6 80 40 45 60 00 00 	movb   $0x0,0x604540(%rax)
  401adb:	c3                   	retq   

0000000000401adc <check_fail>:
  401adc:	48 83 ec 08          	sub    $0x8,%rsp
  401ae0:	0f be 15 61 36 20 00 	movsbl 0x203661(%rip),%edx        # 605148 <target_prefix>
  401ae7:	41 b8 40 45 60 00    	mov    $0x604540,%r8d
  401aed:	8b 0d 25 2a 20 00    	mov    0x202a25(%rip),%ecx        # 604518 <check_level>
  401af3:	be bb 32 40 00       	mov    $0x4032bb,%esi
  401af8:	bf 01 00 00 00       	mov    $0x1,%edi
  401afd:	b8 00 00 00 00       	mov    $0x0,%eax
  401b02:	e8 19 f3 ff ff       	callq  400e20 <__printf_chk@plt>
  401b07:	bf 01 00 00 00       	mov    $0x1,%edi
  401b0c:	e8 5f f3 ff ff       	callq  400e70 <exit@plt>

0000000000401b11 <Gets>:
  401b11:	41 54                	push   %r12
  401b13:	55                   	push   %rbp
  401b14:	53                   	push   %rbx
  401b15:	49 89 fc             	mov    %rdi,%r12
  401b18:	c7 05 22 36 20 00 00 	movl   $0x0,0x203622(%rip)        # 605144 <gets_cnt>
  401b1f:	00 00 00 
  401b22:	48 89 fb             	mov    %rdi,%rbx
  401b25:	eb 11                	jmp    401b38 <Gets+0x27>
  401b27:	48 8d 6b 01          	lea    0x1(%rbx),%rbp
  401b2b:	88 03                	mov    %al,(%rbx)
  401b2d:	0f b6 f8             	movzbl %al,%edi
  401b30:	e8 3c ff ff ff       	callq  401a71 <save_char>
  401b35:	48 89 eb             	mov    %rbp,%rbx
  401b38:	48 8b 3d d1 29 20 00 	mov    0x2029d1(%rip),%rdi        # 604510 <infile>
  401b3f:	e8 ac f2 ff ff       	callq  400df0 <_IO_getc@plt>
  401b44:	83 f8 ff             	cmp    $0xffffffff,%eax
  401b47:	74 05                	je     401b4e <Gets+0x3d>
  401b49:	83 f8 0a             	cmp    $0xa,%eax
  401b4c:	75 d9                	jne    401b27 <Gets+0x16>
  401b4e:	c6 03 00             	movb   $0x0,(%rbx)
  401b51:	b8 00 00 00 00       	mov    $0x0,%eax
  401b56:	e8 6e ff ff ff       	callq  401ac9 <save_term>
  401b5b:	4c 89 e0             	mov    %r12,%rax
  401b5e:	5b                   	pop    %rbx
  401b5f:	5d                   	pop    %rbp
  401b60:	41 5c                	pop    %r12
  401b62:	c3                   	retq   

0000000000401b63 <notify_server>:
  401b63:	53                   	push   %rbx
  401b64:	48 81 ec 10 40 00 00 	sub    $0x4010,%rsp
  401b6b:	64 48 8b 04 25 28 00 	mov    %fs:0x28,%rax
  401b72:	00 00 
  401b74:	48 89 84 24 08 40 00 	mov    %rax,0x4008(%rsp)
  401b7b:	00 
  401b7c:	31 c0                	xor    %eax,%eax
  401b7e:	83 3d a3 29 20 00 00 	cmpl   $0x0,0x2029a3(%rip)        # 604528 <is_checker>
  401b85:	0f 85 aa 01 00 00    	jne    401d35 <notify_server+0x1d2>
  401b8b:	89 fb                	mov    %edi,%ebx
  401b8d:	8b 05 b1 35 20 00    	mov    0x2035b1(%rip),%eax        # 605144 <gets_cnt>
  401b93:	83 c0 64             	add    $0x64,%eax
  401b96:	3d 00 20 00 00       	cmp    $0x2000,%eax
  401b9b:	7e 1e                	jle    401bbb <notify_server+0x58>
  401b9d:	be f0 33 40 00       	mov    $0x4033f0,%esi
  401ba2:	bf 01 00 00 00       	mov    $0x1,%edi
  401ba7:	b8 00 00 00 00       	mov    $0x0,%eax
  401bac:	e8 6f f2 ff ff       	callq  400e20 <__printf_chk@plt>
  401bb1:	bf 01 00 00 00       	mov    $0x1,%edi
  401bb6:	e8 b5 f2 ff ff       	callq  400e70 <exit@plt>
  401bbb:	0f be 05 86 35 20 00 	movsbl 0x203586(%rip),%eax        # 605148 <target_prefix>
  401bc2:	83 3d df 28 20 00 00 	cmpl   $0x0,0x2028df(%rip)        # 6044a8 <notify>
  401bc9:	74 08                	je     401bd3 <notify_server+0x70>
  401bcb:	8b 15 4f 29 20 00    	mov    0x20294f(%rip),%edx        # 604520 <authkey>
  401bd1:	eb 05                	jmp    401bd8 <notify_server+0x75>
  401bd3:	ba ff ff ff ff       	mov    $0xffffffff,%edx
  401bd8:	85 db                	test   %ebx,%ebx
  401bda:	74 08                	je     401be4 <notify_server+0x81>
  401bdc:	41 b9 d1 32 40 00    	mov    $0x4032d1,%r9d
  401be2:	eb 06                	jmp    401bea <notify_server+0x87>
  401be4:	41 b9 d6 32 40 00    	mov    $0x4032d6,%r9d
  401bea:	68 40 45 60 00       	pushq  $0x604540
  401bef:	56                   	push   %rsi
  401bf0:	50                   	push   %rax
  401bf1:	52                   	push   %rdx
  401bf2:	44 8b 05 6f 25 20 00 	mov    0x20256f(%rip),%r8d        # 604168 <target_id>
  401bf9:	b9 db 32 40 00       	mov    $0x4032db,%ecx
  401bfe:	ba 00 20 00 00       	mov    $0x2000,%edx
  401c03:	be 01 00 00 00       	mov    $0x1,%esi
  401c08:	48 8d 7c 24 20       	lea    0x20(%rsp),%rdi
  401c0d:	b8 00 00 00 00       	mov    $0x0,%eax
  401c12:	e8 89 f2 ff ff       	callq  400ea0 <__sprintf_chk@plt>
  401c17:	48 83 c4 20          	add    $0x20,%rsp
  401c1b:	83 3d 86 28 20 00 00 	cmpl   $0x0,0x202886(%rip)        # 6044a8 <notify>
  401c22:	0f 84 81 00 00 00    	je     401ca9 <notify_server+0x146>
  401c28:	85 db                	test   %ebx,%ebx
  401c2a:	74 6e                	je     401c9a <notify_server+0x137>
  401c2c:	4c 8d 8c 24 00 20 00 	lea    0x2000(%rsp),%r9
  401c33:	00 
  401c34:	41 b8 00 00 00 00    	mov    $0x0,%r8d
  401c3a:	48 89 e1             	mov    %rsp,%rcx
  401c3d:	48 8b 15 2c 25 20 00 	mov    0x20252c(%rip),%rdx        # 604170 <lab>
  401c44:	48 8b 35 2d 25 20 00 	mov    0x20252d(%rip),%rsi        # 604178 <course>
  401c4b:	48 8b 3d 0e 25 20 00 	mov    0x20250e(%rip),%rdi        # 604160 <user_id>
  401c52:	e8 ef 10 00 00       	callq  402d46 <driver_post>
  401c57:	85 c0                	test   %eax,%eax
  401c59:	79 26                	jns    401c81 <notify_server+0x11e>
  401c5b:	48 8d 94 24 00 20 00 	lea    0x2000(%rsp),%rdx
  401c62:	00 
  401c63:	be f7 32 40 00       	mov    $0x4032f7,%esi
  401c68:	bf 01 00 00 00       	mov    $0x1,%edi
  401c6d:	b8 00 00 00 00       	mov    $0x0,%eax
  401c72:	e8 a9 f1 ff ff       	callq  400e20 <__printf_chk@plt>
  401c77:	bf 01 00 00 00       	mov    $0x1,%edi
  401c7c:	e8 ef f1 ff ff       	callq  400e70 <exit@plt>
  401c81:	bf 20 34 40 00       	mov    $0x403420,%edi
  401c86:	e8 55 f0 ff ff       	callq  400ce0 <puts@plt>
  401c8b:	bf 03 33 40 00       	mov    $0x403303,%edi
  401c90:	e8 4b f0 ff ff       	callq  400ce0 <puts@plt>
  401c95:	e9 9b 00 00 00       	jmpq   401d35 <notify_server+0x1d2>
  401c9a:	bf 0d 33 40 00       	mov    $0x40330d,%edi
  401c9f:	e8 3c f0 ff ff       	callq  400ce0 <puts@plt>
  401ca4:	e9 8c 00 00 00       	jmpq   401d35 <notify_server+0x1d2>
  401ca9:	85 db                	test   %ebx,%ebx
  401cab:	74 07                	je     401cb4 <notify_server+0x151>
  401cad:	ba d1 32 40 00       	mov    $0x4032d1,%edx
  401cb2:	eb 05                	jmp    401cb9 <notify_server+0x156>
  401cb4:	ba d6 32 40 00       	mov    $0x4032d6,%edx
  401cb9:	be 58 34 40 00       	mov    $0x403458,%esi
  401cbe:	bf 01 00 00 00       	mov    $0x1,%edi
  401cc3:	b8 00 00 00 00       	mov    $0x0,%eax
  401cc8:	e8 53 f1 ff ff       	callq  400e20 <__printf_chk@plt>
  401ccd:	48 8b 15 8c 24 20 00 	mov    0x20248c(%rip),%rdx        # 604160 <user_id>
  401cd4:	be 14 33 40 00       	mov    $0x403314,%esi
  401cd9:	bf 01 00 00 00       	mov    $0x1,%edi
  401cde:	b8 00 00 00 00       	mov    $0x0,%eax
  401ce3:	e8 38 f1 ff ff       	callq  400e20 <__printf_chk@plt>
  401ce8:	48 8b 15 89 24 20 00 	mov    0x202489(%rip),%rdx        # 604178 <course>
  401cef:	be 21 33 40 00       	mov    $0x403321,%esi
  401cf4:	bf 01 00 00 00       	mov    $0x1,%edi
  401cf9:	b8 00 00 00 00       	mov    $0x0,%eax
  401cfe:	e8 1d f1 ff ff       	callq  400e20 <__printf_chk@plt>
  401d03:	48 8b 15 66 24 20 00 	mov    0x202466(%rip),%rdx        # 604170 <lab>
  401d0a:	be 2d 33 40 00       	mov    $0x40332d,%esi
  401d0f:	bf 01 00 00 00       	mov    $0x1,%edi
  401d14:	b8 00 00 00 00       	mov    $0x0,%eax
  401d19:	e8 02 f1 ff ff       	callq  400e20 <__printf_chk@plt>
  401d1e:	48 89 e2             	mov    %rsp,%rdx
  401d21:	be 36 33 40 00       	mov    $0x403336,%esi
  401d26:	bf 01 00 00 00       	mov    $0x1,%edi
  401d2b:	b8 00 00 00 00       	mov    $0x0,%eax
  401d30:	e8 eb f0 ff ff       	callq  400e20 <__printf_chk@plt>
  401d35:	48 8b 84 24 08 40 00 	mov    0x4008(%rsp),%rax
  401d3c:	00 
  401d3d:	64 48 33 04 25 28 00 	xor    %fs:0x28,%rax
  401d44:	00 00 
  401d46:	74 05                	je     401d4d <notify_server+0x1ea>
  401d48:	e8 b3 ef ff ff       	callq  400d00 <__stack_chk_fail@plt>
  401d4d:	48 81 c4 10 40 00 00 	add    $0x4010,%rsp
  401d54:	5b                   	pop    %rbx
  401d55:	c3                   	retq   

0000000000401d56 <validate>:
  401d56:	53                   	push   %rbx
  401d57:	89 fb                	mov    %edi,%ebx
  401d59:	83 3d c8 27 20 00 00 	cmpl   $0x0,0x2027c8(%rip)        # 604528 <is_checker>
  401d60:	74 6b                	je     401dcd <validate+0x77>
  401d62:	39 3d b4 27 20 00    	cmp    %edi,0x2027b4(%rip)        # 60451c <vlevel>
  401d68:	74 14                	je     401d7e <validate+0x28>
  401d6a:	bf 42 33 40 00       	mov    $0x403342,%edi
  401d6f:	e8 6c ef ff ff       	callq  400ce0 <puts@plt>
  401d74:	b8 00 00 00 00       	mov    $0x0,%eax
  401d79:	e8 5e fd ff ff       	callq  401adc <check_fail>
  401d7e:	8b 15 94 27 20 00    	mov    0x202794(%rip),%edx        # 604518 <check_level>
  401d84:	39 d7                	cmp    %edx,%edi
  401d86:	74 20                	je     401da8 <validate+0x52>
  401d88:	89 f9                	mov    %edi,%ecx
  401d8a:	be 80 34 40 00       	mov    $0x403480,%esi
  401d8f:	bf 01 00 00 00       	mov    $0x1,%edi
  401d94:	b8 00 00 00 00       	mov    $0x0,%eax
  401d99:	e8 82 f0 ff ff       	callq  400e20 <__printf_chk@plt>
  401d9e:	b8 00 00 00 00       	mov    $0x0,%eax
  401da3:	e8 34 fd ff ff       	callq  401adc <check_fail>
  401da8:	0f be 15 99 33 20 00 	movsbl 0x203399(%rip),%edx        # 605148 <target_prefix>
  401daf:	41 b8 40 45 60 00    	mov    $0x604540,%r8d
  401db5:	89 f9                	mov    %edi,%ecx
  401db7:	be 60 33 40 00       	mov    $0x403360,%esi
  401dbc:	bf 01 00 00 00       	mov    $0x1,%edi
  401dc1:	b8 00 00 00 00       	mov    $0x0,%eax
  401dc6:	e8 55 f0 ff ff       	callq  400e20 <__printf_chk@plt>
  401dcb:	eb 49                	jmp    401e16 <validate+0xc0>
  401dcd:	3b 3d 49 27 20 00    	cmp    0x202749(%rip),%edi        # 60451c <vlevel>
  401dd3:	74 18                	je     401ded <validate+0x97>
  401dd5:	bf 42 33 40 00       	mov    $0x403342,%edi
  401dda:	e8 01 ef ff ff       	callq  400ce0 <puts@plt>
  401ddf:	89 de                	mov    %ebx,%esi
  401de1:	bf 00 00 00 00       	mov    $0x0,%edi
  401de6:	e8 78 fd ff ff       	callq  401b63 <notify_server>
  401deb:	eb 29                	jmp    401e16 <validate+0xc0>
  401ded:	0f be 0d 54 33 20 00 	movsbl 0x203354(%rip),%ecx        # 605148 <target_prefix>
  401df4:	89 fa                	mov    %edi,%edx
  401df6:	be a8 34 40 00       	mov    $0x4034a8,%esi
  401dfb:	bf 01 00 00 00       	mov    $0x1,%edi
  401e00:	b8 00 00 00 00       	mov    $0x0,%eax
  401e05:	e8 16 f0 ff ff       	callq  400e20 <__printf_chk@plt>
  401e0a:	89 de                	mov    %ebx,%esi
  401e0c:	bf 01 00 00 00       	mov    $0x1,%edi
  401e11:	e8 4d fd ff ff       	callq  401b63 <notify_server>
  401e16:	5b                   	pop    %rbx
  401e17:	c3                   	retq   

0000000000401e18 <fail>:
  401e18:	48 83 ec 08          	sub    $0x8,%rsp
  401e1c:	83 3d 05 27 20 00 00 	cmpl   $0x0,0x202705(%rip)        # 604528 <is_checker>
  401e23:	74 0a                	je     401e2f <fail+0x17>
  401e25:	b8 00 00 00 00       	mov    $0x0,%eax
  401e2a:	e8 ad fc ff ff       	callq  401adc <check_fail>
  401e2f:	89 fe                	mov    %edi,%esi
  401e31:	bf 00 00 00 00       	mov    $0x0,%edi
  401e36:	e8 28 fd ff ff       	callq  401b63 <notify_server>
  401e3b:	48 83 c4 08          	add    $0x8,%rsp
  401e3f:	c3                   	retq   

0000000000401e40 <bushandler>:
  401e40:	48 83 ec 08          	sub    $0x8,%rsp
  401e44:	83 3d dd 26 20 00 00 	cmpl   $0x0,0x2026dd(%rip)        # 604528 <is_checker>
  401e4b:	74 14                	je     401e61 <bushandler+0x21>
  401e4d:	bf 75 33 40 00       	mov    $0x403375,%edi
  401e52:	e8 89 ee ff ff       	callq  400ce0 <puts@plt>
  401e57:	b8 00 00 00 00       	mov    $0x0,%eax
  401e5c:	e8 7b fc ff ff       	callq  401adc <check_fail>
  401e61:	bf e0 34 40 00       	mov    $0x4034e0,%edi
  401e66:	e8 75 ee ff ff       	callq  400ce0 <puts@plt>
  401e6b:	bf 7f 33 40 00       	mov    $0x40337f,%edi
  401e70:	e8 6b ee ff ff       	callq  400ce0 <puts@plt>
  401e75:	be 00 00 00 00       	mov    $0x0,%esi
  401e7a:	bf 00 00 00 00       	mov    $0x0,%edi
  401e7f:	e8 df fc ff ff       	callq  401b63 <notify_server>
  401e84:	bf 01 00 00 00       	mov    $0x1,%edi
  401e89:	e8 e2 ef ff ff       	callq  400e70 <exit@plt>

0000000000401e8e <seghandler>:
  401e8e:	48 83 ec 08          	sub    $0x8,%rsp
  401e92:	83 3d 8f 26 20 00 00 	cmpl   $0x0,0x20268f(%rip)        # 604528 <is_checker>
  401e99:	74 14                	je     401eaf <seghandler+0x21>
  401e9b:	bf 95 33 40 00       	mov    $0x403395,%edi
  401ea0:	e8 3b ee ff ff       	callq  400ce0 <puts@plt>
  401ea5:	b8 00 00 00 00       	mov    $0x0,%eax
  401eaa:	e8 2d fc ff ff       	callq  401adc <check_fail>
  401eaf:	bf 00 35 40 00       	mov    $0x403500,%edi
  401eb4:	e8 27 ee ff ff       	callq  400ce0 <puts@plt>
  401eb9:	bf 7f 33 40 00       	mov    $0x40337f,%edi
  401ebe:	e8 1d ee ff ff       	callq  400ce0 <puts@plt>
  401ec3:	be 00 00 00 00       	mov    $0x0,%esi
  401ec8:	bf 00 00 00 00       	mov    $0x0,%edi
  401ecd:	e8 91 fc ff ff       	callq  401b63 <notify_server>
  401ed2:	bf 01 00 00 00       	mov    $0x1,%edi
  401ed7:	e8 94 ef ff ff       	callq  400e70 <exit@plt>

0000000000401edc <illegalhandler>:
  401edc:	48 83 ec 08          	sub    $0x8,%rsp
  401ee0:	83 3d 41 26 20 00 00 	cmpl   $0x0,0x202641(%rip)        # 604528 <is_checker>
  401ee7:	74 14                	je     401efd <illegalhandler+0x21>
  401ee9:	bf a8 33 40 00       	mov    $0x4033a8,%edi
  401eee:	e8 ed ed ff ff       	callq  400ce0 <puts@plt>
  401ef3:	b8 00 00 00 00       	mov    $0x0,%eax
  401ef8:	e8 df fb ff ff       	callq  401adc <check_fail>
  401efd:	bf 28 35 40 00       	mov    $0x403528,%edi
  401f02:	e8 d9 ed ff ff       	callq  400ce0 <puts@plt>
  401f07:	bf 7f 33 40 00       	mov    $0x40337f,%edi
  401f0c:	e8 cf ed ff ff       	callq  400ce0 <puts@plt>
  401f11:	be 00 00 00 00       	mov    $0x0,%esi
  401f16:	bf 00 00 00 00       	mov    $0x0,%edi
  401f1b:	e8 43 fc ff ff       	callq  401b63 <notify_server>
  401f20:	bf 01 00 00 00       	mov    $0x1,%edi
  401f25:	e8 46 ef ff ff       	callq  400e70 <exit@plt>

0000000000401f2a <sigalrmhandler>:
  401f2a:	48 83 ec 08          	sub    $0x8,%rsp
  401f2e:	83 3d f3 25 20 00 00 	cmpl   $0x0,0x2025f3(%rip)        # 604528 <is_checker>
  401f35:	74 14                	je     401f4b <sigalrmhandler+0x21>
  401f37:	bf bc 33 40 00       	mov    $0x4033bc,%edi
  401f3c:	e8 9f ed ff ff       	callq  400ce0 <puts@plt>
  401f41:	b8 00 00 00 00       	mov    $0x0,%eax
  401f46:	e8 91 fb ff ff       	callq  401adc <check_fail>
  401f4b:	ba 05 00 00 00       	mov    $0x5,%edx
  401f50:	be 58 35 40 00       	mov    $0x403558,%esi
  401f55:	bf 01 00 00 00       	mov    $0x1,%edi
  401f5a:	b8 00 00 00 00       	mov    $0x0,%eax
  401f5f:	e8 bc ee ff ff       	callq  400e20 <__printf_chk@plt>
  401f64:	be 00 00 00 00       	mov    $0x0,%esi
  401f69:	bf 00 00 00 00       	mov    $0x0,%edi
  401f6e:	e8 f0 fb ff ff       	callq  401b63 <notify_server>
  401f73:	bf 01 00 00 00       	mov    $0x1,%edi
  401f78:	e8 f3 ee ff ff       	callq  400e70 <exit@plt>

0000000000401f7d <launch>:
  401f7d:	55                   	push   %rbp
  401f7e:	48 89 e5             	mov    %rsp,%rbp
  401f81:	48 83 ec 10          	sub    $0x10,%rsp
  401f85:	48 89 fa             	mov    %rdi,%rdx
  401f88:	64 48 8b 04 25 28 00 	mov    %fs:0x28,%rax
  401f8f:	00 00 
  401f91:	48 89 45 f8          	mov    %rax,-0x8(%rbp)
  401f95:	31 c0                	xor    %eax,%eax
  401f97:	48 8d 47 1e          	lea    0x1e(%rdi),%rax
  401f9b:	48 83 e0 f0          	and    $0xfffffffffffffff0,%rax
  401f9f:	48 29 c4             	sub    %rax,%rsp
  401fa2:	48 8d 7c 24 0f       	lea    0xf(%rsp),%rdi
  401fa7:	48 83 e7 f0          	and    $0xfffffffffffffff0,%rdi
  401fab:	be f4 00 00 00       	mov    $0xf4,%esi
  401fb0:	e8 6b ed ff ff       	callq  400d20 <memset@plt>
  401fb5:	48 8b 05 04 25 20 00 	mov    0x202504(%rip),%rax        # 6044c0 <stdin@@GLIBC_2.2.5>
  401fbc:	48 39 05 4d 25 20 00 	cmp    %rax,0x20254d(%rip)        # 604510 <infile>
  401fc3:	75 14                	jne    401fd9 <launch+0x5c>
  401fc5:	be c4 33 40 00       	mov    $0x4033c4,%esi
  401fca:	bf 01 00 00 00       	mov    $0x1,%edi
  401fcf:	b8 00 00 00 00       	mov    $0x0,%eax
  401fd4:	e8 47 ee ff ff       	callq  400e20 <__printf_chk@plt>
  401fd9:	c7 05 39 25 20 00 00 	movl   $0x0,0x202539(%rip)        # 60451c <vlevel>
  401fe0:	00 00 00 
  401fe3:	b8 00 00 00 00       	mov    $0x0,%eax
  401fe8:	e8 5b fa ff ff       	callq  401a48 <test>
  401fed:	83 3d 34 25 20 00 00 	cmpl   $0x0,0x202534(%rip)        # 604528 <is_checker>
  401ff4:	74 14                	je     40200a <launch+0x8d>
  401ff6:	bf d1 33 40 00       	mov    $0x4033d1,%edi
  401ffb:	e8 e0 ec ff ff       	callq  400ce0 <puts@plt>
  402000:	b8 00 00 00 00       	mov    $0x0,%eax
  402005:	e8 d2 fa ff ff       	callq  401adc <check_fail>
  40200a:	bf dc 33 40 00       	mov    $0x4033dc,%edi
  40200f:	e8 cc ec ff ff       	callq  400ce0 <puts@plt>
  402014:	48 8b 45 f8          	mov    -0x8(%rbp),%rax
  402018:	64 48 33 04 25 28 00 	xor    %fs:0x28,%rax
  40201f:	00 00 
  402021:	74 05                	je     402028 <launch+0xab>
  402023:	e8 d8 ec ff ff       	callq  400d00 <__stack_chk_fail@plt>
  402028:	c9                   	leaveq 
  402029:	c3                   	retq   

000000000040202a <stable_launch>:
  40202a:	53                   	push   %rbx
  40202b:	48 89 3d d6 24 20 00 	mov    %rdi,0x2024d6(%rip)        # 604508 <global_offset>
  402032:	41 b9 00 00 00 00    	mov    $0x0,%r9d
  402038:	41 b8 00 00 00 00    	mov    $0x0,%r8d
  40203e:	b9 32 01 00 00       	mov    $0x132,%ecx
  402043:	ba 07 00 00 00       	mov    $0x7,%edx
  402048:	be 00 00 10 00       	mov    $0x100000,%esi
  40204d:	bf 00 60 58 55       	mov    $0x55586000,%edi
  402052:	e8 b9 ec ff ff       	callq  400d10 <mmap@plt>
  402057:	48 89 c3             	mov    %rax,%rbx
  40205a:	48 3d 00 60 58 55    	cmp    $0x55586000,%rax
  402060:	74 37                	je     402099 <stable_launch+0x6f>
  402062:	be 00 00 10 00       	mov    $0x100000,%esi
  402067:	48 89 c7             	mov    %rax,%rdi
  40206a:	e8 a1 ed ff ff       	callq  400e10 <munmap@plt>
  40206f:	b9 00 60 58 55       	mov    $0x55586000,%ecx
  402074:	ba 90 35 40 00       	mov    $0x403590,%edx
  402079:	be 01 00 00 00       	mov    $0x1,%esi
  40207e:	48 8b 3d 5b 24 20 00 	mov    0x20245b(%rip),%rdi        # 6044e0 <stderr@@GLIBC_2.2.5>
  402085:	b8 00 00 00 00       	mov    $0x0,%eax
  40208a:	e8 01 ee ff ff       	callq  400e90 <__fprintf_chk@plt>
  40208f:	bf 01 00 00 00       	mov    $0x1,%edi
  402094:	e8 d7 ed ff ff       	callq  400e70 <exit@plt>
  402099:	48 8d 90 f8 ff 0f 00 	lea    0xffff8(%rax),%rdx
  4020a0:	48 89 15 a9 30 20 00 	mov    %rdx,0x2030a9(%rip)        # 605150 <stack_top>
  4020a7:	48 89 e0             	mov    %rsp,%rax
  4020aa:	48 89 d4             	mov    %rdx,%rsp
  4020ad:	48 89 c2             	mov    %rax,%rdx
  4020b0:	48 89 15 49 24 20 00 	mov    %rdx,0x202449(%rip)        # 604500 <global_save_stack>
  4020b7:	48 8b 3d 4a 24 20 00 	mov    0x20244a(%rip),%rdi        # 604508 <global_offset>
  4020be:	e8 ba fe ff ff       	callq  401f7d <launch>
  4020c3:	48 8b 05 36 24 20 00 	mov    0x202436(%rip),%rax        # 604500 <global_save_stack>
  4020ca:	48 89 c4             	mov    %rax,%rsp
  4020cd:	be 00 00 10 00       	mov    $0x100000,%esi
  4020d2:	48 89 df             	mov    %rbx,%rdi
  4020d5:	e8 36 ed ff ff       	callq  400e10 <munmap@plt>
  4020da:	5b                   	pop    %rbx
  4020db:	c3                   	retq   

00000000004020dc <rio_readinitb>:
  4020dc:	89 37                	mov    %esi,(%rdi)
  4020de:	c7 47 04 00 00 00 00 	movl   $0x0,0x4(%rdi)
  4020e5:	48 8d 47 10          	lea    0x10(%rdi),%rax
  4020e9:	48 89 47 08          	mov    %rax,0x8(%rdi)
  4020ed:	c3                   	retq   

00000000004020ee <sigalrm_handler>:
  4020ee:	48 83 ec 08          	sub    $0x8,%rsp
  4020f2:	b9 00 00 00 00       	mov    $0x0,%ecx
  4020f7:	ba d0 35 40 00       	mov    $0x4035d0,%edx
  4020fc:	be 01 00 00 00       	mov    $0x1,%esi
  402101:	48 8b 3d d8 23 20 00 	mov    0x2023d8(%rip),%rdi        # 6044e0 <stderr@@GLIBC_2.2.5>
  402108:	b8 00 00 00 00       	mov    $0x0,%eax
  40210d:	e8 7e ed ff ff       	callq  400e90 <__fprintf_chk@plt>
  402112:	bf 01 00 00 00       	mov    $0x1,%edi
  402117:	e8 54 ed ff ff       	callq  400e70 <exit@plt>

000000000040211c <rio_writen>:
  40211c:	41 55                	push   %r13
  40211e:	41 54                	push   %r12
  402120:	55                   	push   %rbp
  402121:	53                   	push   %rbx
  402122:	48 83 ec 08          	sub    $0x8,%rsp
  402126:	41 89 fc             	mov    %edi,%r12d
  402129:	48 89 f5             	mov    %rsi,%rbp
  40212c:	49 89 d5             	mov    %rdx,%r13
  40212f:	48 89 d3             	mov    %rdx,%rbx
  402132:	eb 28                	jmp    40215c <rio_writen+0x40>
  402134:	48 89 da             	mov    %rbx,%rdx
  402137:	48 89 ee             	mov    %rbp,%rsi
  40213a:	44 89 e7             	mov    %r12d,%edi
  40213d:	e8 ae eb ff ff       	callq  400cf0 <write@plt>
  402142:	48 85 c0             	test   %rax,%rax
  402145:	7f 0f                	jg     402156 <rio_writen+0x3a>
  402147:	e8 54 eb ff ff       	callq  400ca0 <__errno_location@plt>
  40214c:	83 38 04             	cmpl   $0x4,(%rax)
  40214f:	75 15                	jne    402166 <rio_writen+0x4a>
  402151:	b8 00 00 00 00       	mov    $0x0,%eax
  402156:	48 29 c3             	sub    %rax,%rbx
  402159:	48 01 c5             	add    %rax,%rbp
  40215c:	48 85 db             	test   %rbx,%rbx
  40215f:	75 d3                	jne    402134 <rio_writen+0x18>
  402161:	4c 89 e8             	mov    %r13,%rax
  402164:	eb 07                	jmp    40216d <rio_writen+0x51>
  402166:	48 c7 c0 ff ff ff ff 	mov    $0xffffffffffffffff,%rax
  40216d:	48 83 c4 08          	add    $0x8,%rsp
  402171:	5b                   	pop    %rbx
  402172:	5d                   	pop    %rbp
  402173:	41 5c                	pop    %r12
  402175:	41 5d                	pop    %r13
  402177:	c3                   	retq   

0000000000402178 <rio_read>:
  402178:	41 55                	push   %r13
  40217a:	41 54                	push   %r12
  40217c:	55                   	push   %rbp
  40217d:	53                   	push   %rbx
  40217e:	48 83 ec 08          	sub    $0x8,%rsp
  402182:	48 89 fb             	mov    %rdi,%rbx
  402185:	49 89 f5             	mov    %rsi,%r13
  402188:	49 89 d4             	mov    %rdx,%r12
  40218b:	eb 2e                	jmp    4021bb <rio_read+0x43>
  40218d:	48 8d 6b 10          	lea    0x10(%rbx),%rbp
  402191:	8b 3b                	mov    (%rbx),%edi
  402193:	ba 00 20 00 00       	mov    $0x2000,%edx
  402198:	48 89 ee             	mov    %rbp,%rsi
  40219b:	e8 b0 eb ff ff       	callq  400d50 <read@plt>
  4021a0:	89 43 04             	mov    %eax,0x4(%rbx)
  4021a3:	85 c0                	test   %eax,%eax
  4021a5:	79 0c                	jns    4021b3 <rio_read+0x3b>
  4021a7:	e8 f4 ea ff ff       	callq  400ca0 <__errno_location@plt>
  4021ac:	83 38 04             	cmpl   $0x4,(%rax)
  4021af:	74 0a                	je     4021bb <rio_read+0x43>
  4021b1:	eb 37                	jmp    4021ea <rio_read+0x72>
  4021b3:	85 c0                	test   %eax,%eax
  4021b5:	74 3c                	je     4021f3 <rio_read+0x7b>
  4021b7:	48 89 6b 08          	mov    %rbp,0x8(%rbx)
  4021bb:	8b 6b 04             	mov    0x4(%rbx),%ebp
  4021be:	85 ed                	test   %ebp,%ebp
  4021c0:	7e cb                	jle    40218d <rio_read+0x15>
  4021c2:	89 e8                	mov    %ebp,%eax
  4021c4:	49 39 c4             	cmp    %rax,%r12
  4021c7:	77 03                	ja     4021cc <rio_read+0x54>
  4021c9:	44 89 e5             	mov    %r12d,%ebp
  4021cc:	4c 63 e5             	movslq %ebp,%r12
  4021cf:	48 8b 73 08          	mov    0x8(%rbx),%rsi
  4021d3:	4c 89 e2             	mov    %r12,%rdx
  4021d6:	4c 89 ef             	mov    %r13,%rdi
  4021d9:	e8 e2 eb ff ff       	callq  400dc0 <memcpy@plt>
  4021de:	4c 01 63 08          	add    %r12,0x8(%rbx)
  4021e2:	29 6b 04             	sub    %ebp,0x4(%rbx)
  4021e5:	4c 89 e0             	mov    %r12,%rax
  4021e8:	eb 0e                	jmp    4021f8 <rio_read+0x80>
  4021ea:	48 c7 c0 ff ff ff ff 	mov    $0xffffffffffffffff,%rax
  4021f1:	eb 05                	jmp    4021f8 <rio_read+0x80>
  4021f3:	b8 00 00 00 00       	mov    $0x0,%eax
  4021f8:	48 83 c4 08          	add    $0x8,%rsp
  4021fc:	5b                   	pop    %rbx
  4021fd:	5d                   	pop    %rbp
  4021fe:	41 5c                	pop    %r12
  402200:	41 5d                	pop    %r13
  402202:	c3                   	retq   

0000000000402203 <rio_readlineb>:
  402203:	41 55                	push   %r13
  402205:	41 54                	push   %r12
  402207:	55                   	push   %rbp
  402208:	53                   	push   %rbx
  402209:	48 83 ec 18          	sub    $0x18,%rsp
  40220d:	49 89 fd             	mov    %rdi,%r13
  402210:	48 89 f5             	mov    %rsi,%rbp
  402213:	49 89 d4             	mov    %rdx,%r12
  402216:	64 48 8b 04 25 28 00 	mov    %fs:0x28,%rax
  40221d:	00 00 
  40221f:	48 89 44 24 08       	mov    %rax,0x8(%rsp)
  402224:	31 c0                	xor    %eax,%eax
  402226:	bb 01 00 00 00       	mov    $0x1,%ebx
  40222b:	eb 3f                	jmp    40226c <rio_readlineb+0x69>
  40222d:	ba 01 00 00 00       	mov    $0x1,%edx
  402232:	48 8d 74 24 07       	lea    0x7(%rsp),%rsi
  402237:	4c 89 ef             	mov    %r13,%rdi
  40223a:	e8 39 ff ff ff       	callq  402178 <rio_read>
  40223f:	83 f8 01             	cmp    $0x1,%eax
  402242:	75 15                	jne    402259 <rio_readlineb+0x56>
  402244:	48 8d 45 01          	lea    0x1(%rbp),%rax
  402248:	0f b6 54 24 07       	movzbl 0x7(%rsp),%edx
  40224d:	88 55 00             	mov    %dl,0x0(%rbp)
  402250:	80 7c 24 07 0a       	cmpb   $0xa,0x7(%rsp)
  402255:	75 0e                	jne    402265 <rio_readlineb+0x62>
  402257:	eb 1a                	jmp    402273 <rio_readlineb+0x70>
  402259:	85 c0                	test   %eax,%eax
  40225b:	75 22                	jne    40227f <rio_readlineb+0x7c>
  40225d:	48 83 fb 01          	cmp    $0x1,%rbx
  402261:	75 13                	jne    402276 <rio_readlineb+0x73>
  402263:	eb 23                	jmp    402288 <rio_readlineb+0x85>
  402265:	48 83 c3 01          	add    $0x1,%rbx
  402269:	48 89 c5             	mov    %rax,%rbp
  40226c:	4c 39 e3             	cmp    %r12,%rbx
  40226f:	72 bc                	jb     40222d <rio_readlineb+0x2a>
  402271:	eb 03                	jmp    402276 <rio_readlineb+0x73>
  402273:	48 89 c5             	mov    %rax,%rbp
  402276:	c6 45 00 00          	movb   $0x0,0x0(%rbp)
  40227a:	48 89 d8             	mov    %rbx,%rax
  40227d:	eb 0e                	jmp    40228d <rio_readlineb+0x8a>
  40227f:	48 c7 c0 ff ff ff ff 	mov    $0xffffffffffffffff,%rax
  402286:	eb 05                	jmp    40228d <rio_readlineb+0x8a>
  402288:	b8 00 00 00 00       	mov    $0x0,%eax
  40228d:	48 8b 4c 24 08       	mov    0x8(%rsp),%rcx
  402292:	64 48 33 0c 25 28 00 	xor    %fs:0x28,%rcx
  402299:	00 00 
  40229b:	74 05                	je     4022a2 <rio_readlineb+0x9f>
  40229d:	e8 5e ea ff ff       	callq  400d00 <__stack_chk_fail@plt>
  4022a2:	48 83 c4 18          	add    $0x18,%rsp
  4022a6:	5b                   	pop    %rbx
  4022a7:	5d                   	pop    %rbp
  4022a8:	41 5c                	pop    %r12
  4022aa:	41 5d                	pop    %r13
  4022ac:	c3                   	retq   

00000000004022ad <urlencode>:
  4022ad:	41 54                	push   %r12
  4022af:	55                   	push   %rbp
  4022b0:	53                   	push   %rbx
  4022b1:	48 83 ec 10          	sub    $0x10,%rsp
  4022b5:	48 89 fb             	mov    %rdi,%rbx
  4022b8:	48 89 f5             	mov    %rsi,%rbp
  4022bb:	64 48 8b 04 25 28 00 	mov    %fs:0x28,%rax
  4022c2:	00 00 
  4022c4:	48 89 44 24 08       	mov    %rax,0x8(%rsp)
  4022c9:	31 c0                	xor    %eax,%eax
  4022cb:	48 c7 c1 ff ff ff ff 	mov    $0xffffffffffffffff,%rcx
  4022d2:	f2 ae                	repnz scas %es:(%rdi),%al
  4022d4:	48 f7 d1             	not    %rcx
  4022d7:	8d 41 ff             	lea    -0x1(%rcx),%eax
  4022da:	e9 aa 00 00 00       	jmpq   402389 <urlencode+0xdc>
  4022df:	44 0f b6 03          	movzbl (%rbx),%r8d
  4022e3:	41 80 f8 2a          	cmp    $0x2a,%r8b
  4022e7:	0f 94 c2             	sete   %dl
  4022ea:	41 80 f8 2d          	cmp    $0x2d,%r8b
  4022ee:	0f 94 c0             	sete   %al
  4022f1:	08 c2                	or     %al,%dl
  4022f3:	75 24                	jne    402319 <urlencode+0x6c>
  4022f5:	41 80 f8 2e          	cmp    $0x2e,%r8b
  4022f9:	74 1e                	je     402319 <urlencode+0x6c>
  4022fb:	41 80 f8 5f          	cmp    $0x5f,%r8b
  4022ff:	74 18                	je     402319 <urlencode+0x6c>
  402301:	41 8d 40 d0          	lea    -0x30(%r8),%eax
  402305:	3c 09                	cmp    $0x9,%al
  402307:	76 10                	jbe    402319 <urlencode+0x6c>
  402309:	41 8d 40 bf          	lea    -0x41(%r8),%eax
  40230d:	3c 19                	cmp    $0x19,%al
  40230f:	76 08                	jbe    402319 <urlencode+0x6c>
  402311:	41 8d 40 9f          	lea    -0x61(%r8),%eax
  402315:	3c 19                	cmp    $0x19,%al
  402317:	77 0a                	ja     402323 <urlencode+0x76>
  402319:	44 88 45 00          	mov    %r8b,0x0(%rbp)
  40231d:	48 8d 6d 01          	lea    0x1(%rbp),%rbp
  402321:	eb 5f                	jmp    402382 <urlencode+0xd5>
  402323:	41 80 f8 20          	cmp    $0x20,%r8b
  402327:	75 0a                	jne    402333 <urlencode+0x86>
  402329:	c6 45 00 2b          	movb   $0x2b,0x0(%rbp)
  40232d:	48 8d 6d 01          	lea    0x1(%rbp),%rbp
  402331:	eb 4f                	jmp    402382 <urlencode+0xd5>
  402333:	41 8d 40 e0          	lea    -0x20(%r8),%eax
  402337:	3c 5f                	cmp    $0x5f,%al
  402339:	0f 96 c2             	setbe  %dl
  40233c:	41 80 f8 09          	cmp    $0x9,%r8b
  402340:	0f 94 c0             	sete   %al
  402343:	08 c2                	or     %al,%dl
  402345:	74 50                	je     402397 <urlencode+0xea>
  402347:	45 0f b6 c0          	movzbl %r8b,%r8d
  40234b:	b9 68 36 40 00       	mov    $0x403668,%ecx
  402350:	ba 08 00 00 00       	mov    $0x8,%edx
  402355:	be 01 00 00 00       	mov    $0x1,%esi
  40235a:	48 89 e7             	mov    %rsp,%rdi
  40235d:	b8 00 00 00 00       	mov    $0x0,%eax
  402362:	e8 39 eb ff ff       	callq  400ea0 <__sprintf_chk@plt>
  402367:	0f b6 04 24          	movzbl (%rsp),%eax
  40236b:	88 45 00             	mov    %al,0x0(%rbp)
  40236e:	0f b6 44 24 01       	movzbl 0x1(%rsp),%eax
  402373:	88 45 01             	mov    %al,0x1(%rbp)
  402376:	0f b6 44 24 02       	movzbl 0x2(%rsp),%eax
  40237b:	88 45 02             	mov    %al,0x2(%rbp)
  40237e:	48 8d 6d 03          	lea    0x3(%rbp),%rbp
  402382:	48 83 c3 01          	add    $0x1,%rbx
  402386:	44 89 e0             	mov    %r12d,%eax
  402389:	44 8d 60 ff          	lea    -0x1(%rax),%r12d
  40238d:	85 c0                	test   %eax,%eax
  40238f:	0f 85 4a ff ff ff    	jne    4022df <urlencode+0x32>
  402395:	eb 05                	jmp    40239c <urlencode+0xef>
  402397:	b8 ff ff ff ff       	mov    $0xffffffff,%eax
  40239c:	48 8b 74 24 08       	mov    0x8(%rsp),%rsi
  4023a1:	64 48 33 34 25 28 00 	xor    %fs:0x28,%rsi
  4023a8:	00 00 
  4023aa:	74 05                	je     4023b1 <urlencode+0x104>
  4023ac:	e8 4f e9 ff ff       	callq  400d00 <__stack_chk_fail@plt>
  4023b1:	48 83 c4 10          	add    $0x10,%rsp
  4023b5:	5b                   	pop    %rbx
  4023b6:	5d                   	pop    %rbp
  4023b7:	41 5c                	pop    %r12
  4023b9:	c3                   	retq   

00000000004023ba <submitr>:
  4023ba:	41 57                	push   %r15
  4023bc:	41 56                	push   %r14
  4023be:	41 55                	push   %r13
  4023c0:	41 54                	push   %r12
  4023c2:	55                   	push   %rbp
  4023c3:	53                   	push   %rbx
  4023c4:	48 81 ec 58 a0 00 00 	sub    $0xa058,%rsp
  4023cb:	49 89 fc             	mov    %rdi,%r12
  4023ce:	89 74 24 04          	mov    %esi,0x4(%rsp)
  4023d2:	49 89 d7             	mov    %rdx,%r15
  4023d5:	49 89 ce             	mov    %rcx,%r14
  4023d8:	4c 89 44 24 08       	mov    %r8,0x8(%rsp)
  4023dd:	4d 89 cd             	mov    %r9,%r13
  4023e0:	48 8b 9c 24 90 a0 00 	mov    0xa090(%rsp),%rbx
  4023e7:	00 
  4023e8:	64 48 8b 04 25 28 00 	mov    %fs:0x28,%rax
  4023ef:	00 00 
  4023f1:	48 89 84 24 48 a0 00 	mov    %rax,0xa048(%rsp)
  4023f8:	00 
  4023f9:	31 c0                	xor    %eax,%eax
  4023fb:	c7 44 24 1c 00 00 00 	movl   $0x0,0x1c(%rsp)
  402402:	00 
  402403:	ba 00 00 00 00       	mov    $0x0,%edx
  402408:	be 01 00 00 00       	mov    $0x1,%esi
  40240d:	bf 02 00 00 00       	mov    $0x2,%edi
  402412:	e8 99 ea ff ff       	callq  400eb0 <socket@plt>
  402417:	85 c0                	test   %eax,%eax
  402419:	79 4e                	jns    402469 <submitr+0xaf>
  40241b:	48 b8 45 72 72 6f 72 	movabs $0x43203a726f727245,%rax
  402422:	3a 20 43 
  402425:	48 89 03             	mov    %rax,(%rbx)
  402428:	48 b8 6c 69 65 6e 74 	movabs $0x6e7520746e65696c,%rax
  40242f:	20 75 6e 
  402432:	48 89 43 08          	mov    %rax,0x8(%rbx)
  402436:	48 b8 61 62 6c 65 20 	movabs $0x206f7420656c6261,%rax
  40243d:	74 6f 20 
  402440:	48 89 43 10          	mov    %rax,0x10(%rbx)
  402444:	48 b8 63 72 65 61 74 	movabs $0x7320657461657263,%rax
  40244b:	65 20 73 
  40244e:	48 89 43 18          	mov    %rax,0x18(%rbx)
  402452:	c7 43 20 6f 63 6b 65 	movl   $0x656b636f,0x20(%rbx)
  402459:	66 c7 43 24 74 00    	movw   $0x74,0x24(%rbx)
  40245f:	b8 ff ff ff ff       	mov    $0xffffffff,%eax
  402464:	e9 97 06 00 00       	jmpq   402b00 <submitr+0x746>
  402469:	89 c5                	mov    %eax,%ebp
  40246b:	4c 89 e7             	mov    %r12,%rdi
  40246e:	e8 0d e9 ff ff       	callq  400d80 <gethostbyname@plt>
  402473:	48 85 c0             	test   %rax,%rax
  402476:	75 67                	jne    4024df <submitr+0x125>
  402478:	48 b8 45 72 72 6f 72 	movabs $0x44203a726f727245,%rax
  40247f:	3a 20 44 
  402482:	48 89 03             	mov    %rax,(%rbx)
  402485:	48 b8 4e 53 20 69 73 	movabs $0x6e7520736920534e,%rax
  40248c:	20 75 6e 
  40248f:	48 89 43 08          	mov    %rax,0x8(%rbx)
  402493:	48 b8 61 62 6c 65 20 	movabs $0x206f7420656c6261,%rax
  40249a:	74 6f 20 
  40249d:	48 89 43 10          	mov    %rax,0x10(%rbx)
  4024a1:	48 b8 72 65 73 6f 6c 	movabs $0x2065766c6f736572,%rax
  4024a8:	76 65 20 
  4024ab:	48 89 43 18          	mov    %rax,0x18(%rbx)
  4024af:	48 b8 73 65 72 76 65 	movabs $0x6120726576726573,%rax
  4024b6:	72 20 61 
  4024b9:	48 89 43 20          	mov    %rax,0x20(%rbx)
  4024bd:	c7 43 28 64 64 72 65 	movl   $0x65726464,0x28(%rbx)
  4024c4:	66 c7 43 2c 73 73    	movw   $0x7373,0x2c(%rbx)
  4024ca:	c6 43 2e 00          	movb   $0x0,0x2e(%rbx)
  4024ce:	89 ef                	mov    %ebp,%edi
  4024d0:	e8 6b e8 ff ff       	callq  400d40 <close@plt>
  4024d5:	b8 ff ff ff ff       	mov    $0xffffffff,%eax
  4024da:	e9 21 06 00 00       	jmpq   402b00 <submitr+0x746>
  4024df:	48 c7 44 24 20 00 00 	movq   $0x0,0x20(%rsp)
  4024e6:	00 00 
  4024e8:	48 c7 44 24 28 00 00 	movq   $0x0,0x28(%rsp)
  4024ef:	00 00 
  4024f1:	66 c7 44 24 20 02 00 	movw   $0x2,0x20(%rsp)
  4024f8:	48 63 50 14          	movslq 0x14(%rax),%rdx
  4024fc:	48 8b 40 18          	mov    0x18(%rax),%rax
  402500:	48 8b 30             	mov    (%rax),%rsi
  402503:	48 8d 7c 24 24       	lea    0x24(%rsp),%rdi
  402508:	b9 0c 00 00 00       	mov    $0xc,%ecx
  40250d:	e8 7e e8 ff ff       	callq  400d90 <__memmove_chk@plt>
  402512:	0f b7 44 24 04       	movzwl 0x4(%rsp),%eax
  402517:	66 c1 c8 08          	ror    $0x8,%ax
  40251b:	66 89 44 24 22       	mov    %ax,0x22(%rsp)
  402520:	ba 10 00 00 00       	mov    $0x10,%edx
  402525:	48 8d 74 24 20       	lea    0x20(%rsp),%rsi
  40252a:	89 ef                	mov    %ebp,%edi
  40252c:	e8 4f e9 ff ff       	callq  400e80 <connect@plt>
  402531:	85 c0                	test   %eax,%eax
  402533:	79 59                	jns    40258e <submitr+0x1d4>
  402535:	48 b8 45 72 72 6f 72 	movabs $0x55203a726f727245,%rax
  40253c:	3a 20 55 
  40253f:	48 89 03             	mov    %rax,(%rbx)
  402542:	48 b8 6e 61 62 6c 65 	movabs $0x6f7420656c62616e,%rax
  402549:	20 74 6f 
  40254c:	48 89 43 08          	mov    %rax,0x8(%rbx)
  402550:	48 b8 20 63 6f 6e 6e 	movabs $0x7463656e6e6f6320,%rax
  402557:	65 63 74 
  40255a:	48 89 43 10          	mov    %rax,0x10(%rbx)
  40255e:	48 b8 20 74 6f 20 74 	movabs $0x20656874206f7420,%rax
  402565:	68 65 20 
  402568:	48 89 43 18          	mov    %rax,0x18(%rbx)
  40256c:	c7 43 20 73 65 72 76 	movl   $0x76726573,0x20(%rbx)
  402573:	66 c7 43 24 65 72    	movw   $0x7265,0x24(%rbx)
  402579:	c6 43 26 00          	movb   $0x0,0x26(%rbx)
  40257d:	89 ef                	mov    %ebp,%edi
  40257f:	e8 bc e7 ff ff       	callq  400d40 <close@plt>
  402584:	b8 ff ff ff ff       	mov    $0xffffffff,%eax
  402589:	e9 72 05 00 00       	jmpq   402b00 <submitr+0x746>
  40258e:	48 c7 c6 ff ff ff ff 	mov    $0xffffffffffffffff,%rsi
  402595:	b8 00 00 00 00       	mov    $0x0,%eax
  40259a:	48 89 f1             	mov    %rsi,%rcx
  40259d:	4c 89 ef             	mov    %r13,%rdi
  4025a0:	f2 ae                	repnz scas %es:(%rdi),%al
  4025a2:	48 f7 d1             	not    %rcx
  4025a5:	48 89 ca             	mov    %rcx,%rdx
  4025a8:	48 89 f1             	mov    %rsi,%rcx
  4025ab:	4c 89 ff             	mov    %r15,%rdi
  4025ae:	f2 ae                	repnz scas %es:(%rdi),%al
  4025b0:	48 f7 d1             	not    %rcx
  4025b3:	49 89 c8             	mov    %rcx,%r8
  4025b6:	48 89 f1             	mov    %rsi,%rcx
  4025b9:	4c 89 f7             	mov    %r14,%rdi
  4025bc:	f2 ae                	repnz scas %es:(%rdi),%al
  4025be:	48 f7 d1             	not    %rcx
  4025c1:	4d 8d 44 08 fe       	lea    -0x2(%r8,%rcx,1),%r8
  4025c6:	48 89 f1             	mov    %rsi,%rcx
  4025c9:	48 8b 7c 24 08       	mov    0x8(%rsp),%rdi
  4025ce:	f2 ae                	repnz scas %es:(%rdi),%al
  4025d0:	48 89 c8             	mov    %rcx,%rax
  4025d3:	48 f7 d0             	not    %rax
  4025d6:	49 8d 4c 00 ff       	lea    -0x1(%r8,%rax,1),%rcx
  4025db:	48 8d 44 52 fd       	lea    -0x3(%rdx,%rdx,2),%rax
  4025e0:	48 8d 84 01 80 00 00 	lea    0x80(%rcx,%rax,1),%rax
  4025e7:	00 
  4025e8:	48 3d 00 20 00 00    	cmp    $0x2000,%rax
  4025ee:	76 72                	jbe    402662 <submitr+0x2a8>
  4025f0:	48 b8 45 72 72 6f 72 	movabs $0x52203a726f727245,%rax
  4025f7:	3a 20 52 
  4025fa:	48 89 03             	mov    %rax,(%rbx)
  4025fd:	48 b8 65 73 75 6c 74 	movabs $0x747320746c757365,%rax
  402604:	20 73 74 
  402607:	48 89 43 08          	mov    %rax,0x8(%rbx)
  40260b:	48 b8 72 69 6e 67 20 	movabs $0x6f6f7420676e6972,%rax
  402612:	74 6f 6f 
  402615:	48 89 43 10          	mov    %rax,0x10(%rbx)
  402619:	48 b8 20 6c 61 72 67 	movabs $0x202e656772616c20,%rax
  402620:	65 2e 20 
  402623:	48 89 43 18          	mov    %rax,0x18(%rbx)
  402627:	48 b8 49 6e 63 72 65 	movabs $0x6573616572636e49,%rax
  40262e:	61 73 65 
  402631:	48 89 43 20          	mov    %rax,0x20(%rbx)
  402635:	48 b8 20 53 55 42 4d 	movabs $0x5254494d42555320,%rax
  40263c:	49 54 52 
  40263f:	48 89 43 28          	mov    %rax,0x28(%rbx)
  402643:	48 b8 5f 4d 41 58 42 	movabs $0x46554258414d5f,%rax
  40264a:	55 46 00 
  40264d:	48 89 43 30          	mov    %rax,0x30(%rbx)
  402651:	89 ef                	mov    %ebp,%edi
  402653:	e8 e8 e6 ff ff       	callq  400d40 <close@plt>
  402658:	b8 ff ff ff ff       	mov    $0xffffffff,%eax
  40265d:	e9 9e 04 00 00       	jmpq   402b00 <submitr+0x746>
  402662:	48 8d b4 24 40 40 00 	lea    0x4040(%rsp),%rsi
  402669:	00 
  40266a:	b9 00 04 00 00       	mov    $0x400,%ecx
  40266f:	b8 00 00 00 00       	mov    $0x0,%eax
  402674:	48 89 f7             	mov    %rsi,%rdi
  402677:	f3 48 ab             	rep stos %rax,%es:(%rdi)
  40267a:	4c 89 ef             	mov    %r13,%rdi
  40267d:	e8 2b fc ff ff       	callq  4022ad <urlencode>
  402682:	85 c0                	test   %eax,%eax
  402684:	0f 89 8a 00 00 00    	jns    402714 <submitr+0x35a>
  40268a:	48 b8 45 72 72 6f 72 	movabs $0x52203a726f727245,%rax
  402691:	3a 20 52 
  402694:	48 89 03             	mov    %rax,(%rbx)
  402697:	48 b8 65 73 75 6c 74 	movabs $0x747320746c757365,%rax
  40269e:	20 73 74 
  4026a1:	48 89 43 08          	mov    %rax,0x8(%rbx)
  4026a5:	48 b8 72 69 6e 67 20 	movabs $0x6e6f6320676e6972,%rax
  4026ac:	63 6f 6e 
  4026af:	48 89 43 10          	mov    %rax,0x10(%rbx)
  4026b3:	48 b8 74 61 69 6e 73 	movabs $0x6e6120736e696174,%rax
  4026ba:	20 61 6e 
  4026bd:	48 89 43 18          	mov    %rax,0x18(%rbx)
  4026c1:	48 b8 20 69 6c 6c 65 	movabs $0x6c6167656c6c6920,%rax
  4026c8:	67 61 6c 
  4026cb:	48 89 43 20          	mov    %rax,0x20(%rbx)
  4026cf:	48 b8 20 6f 72 20 75 	movabs $0x72706e7520726f20,%rax
  4026d6:	6e 70 72 
  4026d9:	48 89 43 28          	mov    %rax,0x28(%rbx)
  4026dd:	48 b8 69 6e 74 61 62 	movabs $0x20656c6261746e69,%rax
  4026e4:	6c 65 20 
  4026e7:	48 89 43 30          	mov    %rax,0x30(%rbx)
  4026eb:	48 b8 63 68 61 72 61 	movabs $0x6574636172616863,%rax
  4026f2:	63 74 65 
  4026f5:	48 89 43 38          	mov    %rax,0x38(%rbx)
  4026f9:	66 c7 43 40 72 2e    	movw   $0x2e72,0x40(%rbx)
  4026ff:	c6 43 42 00          	movb   $0x0,0x42(%rbx)
  402703:	89 ef                	mov    %ebp,%edi
  402705:	e8 36 e6 ff ff       	callq  400d40 <close@plt>
  40270a:	b8 ff ff ff ff       	mov    $0xffffffff,%eax
  40270f:	e9 ec 03 00 00       	jmpq   402b00 <submitr+0x746>
  402714:	4c 8d ac 24 40 20 00 	lea    0x2040(%rsp),%r13
  40271b:	00 
  40271c:	41 54                	push   %r12
  40271e:	48 8d 84 24 48 40 00 	lea    0x4048(%rsp),%rax
  402725:	00 
  402726:	50                   	push   %rax
  402727:	4d 89 f9             	mov    %r15,%r9
  40272a:	4d 89 f0             	mov    %r14,%r8
  40272d:	b9 f8 35 40 00       	mov    $0x4035f8,%ecx
  402732:	ba 00 20 00 00       	mov    $0x2000,%edx
  402737:	be 01 00 00 00       	mov    $0x1,%esi
  40273c:	4c 89 ef             	mov    %r13,%rdi
  40273f:	b8 00 00 00 00       	mov    $0x0,%eax
  402744:	e8 57 e7 ff ff       	callq  400ea0 <__sprintf_chk@plt>
  402749:	b8 00 00 00 00       	mov    $0x0,%eax
  40274e:	48 c7 c1 ff ff ff ff 	mov    $0xffffffffffffffff,%rcx
  402755:	4c 89 ef             	mov    %r13,%rdi
  402758:	f2 ae                	repnz scas %es:(%rdi),%al
  40275a:	48 f7 d1             	not    %rcx
  40275d:	48 8d 51 ff          	lea    -0x1(%rcx),%rdx
  402761:	4c 89 ee             	mov    %r13,%rsi
  402764:	89 ef                	mov    %ebp,%edi
  402766:	e8 b1 f9 ff ff       	callq  40211c <rio_writen>
  40276b:	48 83 c4 10          	add    $0x10,%rsp
  40276f:	48 85 c0             	test   %rax,%rax
  402772:	79 6e                	jns    4027e2 <submitr+0x428>
  402774:	48 b8 45 72 72 6f 72 	movabs $0x43203a726f727245,%rax
  40277b:	3a 20 43 
  40277e:	48 89 03             	mov    %rax,(%rbx)
  402781:	48 b8 6c 69 65 6e 74 	movabs $0x6e7520746e65696c,%rax
  402788:	20 75 6e 
  40278b:	48 89 43 08          	mov    %rax,0x8(%rbx)
  40278f:	48 b8 61 62 6c 65 20 	movabs $0x206f7420656c6261,%rax
  402796:	74 6f 20 
  402799:	48 89 43 10          	mov    %rax,0x10(%rbx)
  40279d:	48 b8 77 72 69 74 65 	movabs $0x6f74206574697277,%rax
  4027a4:	20 74 6f 
  4027a7:	48 89 43 18          	mov    %rax,0x18(%rbx)
  4027ab:	48 b8 20 74 68 65 20 	movabs $0x7365722065687420,%rax
  4027b2:	72 65 73 
  4027b5:	48 89 43 20          	mov    %rax,0x20(%rbx)
  4027b9:	48 b8 75 6c 74 20 73 	movabs $0x7672657320746c75,%rax
  4027c0:	65 72 76 
  4027c3:	48 89 43 28          	mov    %rax,0x28(%rbx)
  4027c7:	66 c7 43 30 65 72    	movw   $0x7265,0x30(%rbx)
  4027cd:	c6 43 32 00          	movb   $0x0,0x32(%rbx)
  4027d1:	89 ef                	mov    %ebp,%edi
  4027d3:	e8 68 e5 ff ff       	callq  400d40 <close@plt>
  4027d8:	b8 ff ff ff ff       	mov    $0xffffffff,%eax
  4027dd:	e9 1e 03 00 00       	jmpq   402b00 <submitr+0x746>
  4027e2:	89 ee                	mov    %ebp,%esi
  4027e4:	48 8d 7c 24 30       	lea    0x30(%rsp),%rdi
  4027e9:	e8 ee f8 ff ff       	callq  4020dc <rio_readinitb>
  4027ee:	ba 00 20 00 00       	mov    $0x2000,%edx
  4027f3:	48 8d b4 24 40 20 00 	lea    0x2040(%rsp),%rsi
  4027fa:	00 
  4027fb:	48 8d 7c 24 30       	lea    0x30(%rsp),%rdi
  402800:	e8 fe f9 ff ff       	callq  402203 <rio_readlineb>
  402805:	48 85 c0             	test   %rax,%rax
  402808:	7f 7d                	jg     402887 <submitr+0x4cd>
  40280a:	48 b8 45 72 72 6f 72 	movabs $0x43203a726f727245,%rax
  402811:	3a 20 43 
  402814:	48 89 03             	mov    %rax,(%rbx)
  402817:	48 b8 6c 69 65 6e 74 	movabs $0x6e7520746e65696c,%rax
  40281e:	20 75 6e 
  402821:	48 89 43 08          	mov    %rax,0x8(%rbx)
  402825:	48 b8 61 62 6c 65 20 	movabs $0x206f7420656c6261,%rax
  40282c:	74 6f 20 
  40282f:	48 89 43 10          	mov    %rax,0x10(%rbx)
  402833:	48 b8 72 65 61 64 20 	movabs $0x7269662064616572,%rax
  40283a:	66 69 72 
  40283d:	48 89 43 18          	mov    %rax,0x18(%rbx)
  402841:	48 b8 73 74 20 68 65 	movabs $0x6564616568207473,%rax
  402848:	61 64 65 
  40284b:	48 89 43 20          	mov    %rax,0x20(%rbx)
  40284f:	48 b8 72 20 66 72 6f 	movabs $0x72206d6f72662072,%rax
  402856:	6d 20 72 
  402859:	48 89 43 28          	mov    %rax,0x28(%rbx)
  40285d:	48 b8 65 73 75 6c 74 	movabs $0x657320746c757365,%rax
  402864:	20 73 65 
  402867:	48 89 43 30          	mov    %rax,0x30(%rbx)
  40286b:	c7 43 38 72 76 65 72 	movl   $0x72657672,0x38(%rbx)
  402872:	c6 43 3c 00          	movb   $0x0,0x3c(%rbx)
  402876:	89 ef                	mov    %ebp,%edi
  402878:	e8 c3 e4 ff ff       	callq  400d40 <close@plt>
  40287d:	b8 ff ff ff ff       	mov    $0xffffffff,%eax
  402882:	e9 79 02 00 00       	jmpq   402b00 <submitr+0x746>
  402887:	4c 8d 84 24 40 80 00 	lea    0x8040(%rsp),%r8
  40288e:	00 
  40288f:	48 8d 4c 24 1c       	lea    0x1c(%rsp),%rcx
  402894:	48 8d 94 24 40 60 00 	lea    0x6040(%rsp),%rdx
  40289b:	00 
  40289c:	be 6f 36 40 00       	mov    $0x40366f,%esi
  4028a1:	48 8d bc 24 40 20 00 	lea    0x2040(%rsp),%rdi
  4028a8:	00 
  4028a9:	b8 00 00 00 00       	mov    $0x0,%eax
  4028ae:	e8 4d e5 ff ff       	callq  400e00 <__isoc99_sscanf@plt>
  4028b3:	e9 95 00 00 00       	jmpq   40294d <submitr+0x593>
  4028b8:	ba 00 20 00 00       	mov    $0x2000,%edx
  4028bd:	48 8d b4 24 40 20 00 	lea    0x2040(%rsp),%rsi
  4028c4:	00 
  4028c5:	48 8d 7c 24 30       	lea    0x30(%rsp),%rdi
  4028ca:	e8 34 f9 ff ff       	callq  402203 <rio_readlineb>
  4028cf:	48 85 c0             	test   %rax,%rax
  4028d2:	7f 79                	jg     40294d <submitr+0x593>
  4028d4:	48 b8 45 72 72 6f 72 	movabs $0x43203a726f727245,%rax
  4028db:	3a 20 43 
  4028de:	48 89 03             	mov    %rax,(%rbx)
  4028e1:	48 b8 6c 69 65 6e 74 	movabs $0x6e7520746e65696c,%rax
  4028e8:	20 75 6e 
  4028eb:	48 89 43 08          	mov    %rax,0x8(%rbx)
  4028ef:	48 b8 61 62 6c 65 20 	movabs $0x206f7420656c6261,%rax
  4028f6:	74 6f 20 
  4028f9:	48 89 43 10          	mov    %rax,0x10(%rbx)
  4028fd:	48 b8 72 65 61 64 20 	movabs $0x6165682064616572,%rax
  402904:	68 65 61 
  402907:	48 89 43 18          	mov    %rax,0x18(%rbx)
  40290b:	48 b8 64 65 72 73 20 	movabs $0x6f72662073726564,%rax
  402912:	66 72 6f 
  402915:	48 89 43 20          	mov    %rax,0x20(%rbx)
  402919:	48 b8 6d 20 74 68 65 	movabs $0x657220656874206d,%rax
  402920:	20 72 65 
  402923:	48 89 43 28          	mov    %rax,0x28(%rbx)
  402927:	48 b8 73 75 6c 74 20 	movabs $0x72657320746c7573,%rax
  40292e:	73 65 72 
  402931:	48 89 43 30          	mov    %rax,0x30(%rbx)
  402935:	c7 43 38 76 65 72 00 	movl   $0x726576,0x38(%rbx)
  40293c:	89 ef                	mov    %ebp,%edi
  40293e:	e8 fd e3 ff ff       	callq  400d40 <close@plt>
  402943:	b8 ff ff ff ff       	mov    $0xffffffff,%eax
  402948:	e9 b3 01 00 00       	jmpq   402b00 <submitr+0x746>
  40294d:	0f b6 94 24 40 20 00 	movzbl 0x2040(%rsp),%edx
  402954:	00 
  402955:	b8 0d 00 00 00       	mov    $0xd,%eax
  40295a:	29 d0                	sub    %edx,%eax
  40295c:	75 1b                	jne    402979 <submitr+0x5bf>
  40295e:	0f b6 94 24 41 20 00 	movzbl 0x2041(%rsp),%edx
  402965:	00 
  402966:	b8 0a 00 00 00       	mov    $0xa,%eax
  40296b:	29 d0                	sub    %edx,%eax
  40296d:	75 0a                	jne    402979 <submitr+0x5bf>
  40296f:	0f b6 84 24 42 20 00 	movzbl 0x2042(%rsp),%eax
  402976:	00 
  402977:	f7 d8                	neg    %eax
  402979:	85 c0                	test   %eax,%eax
  40297b:	0f 85 37 ff ff ff    	jne    4028b8 <submitr+0x4fe>
  402981:	ba 00 20 00 00       	mov    $0x2000,%edx
  402986:	48 8d b4 24 40 20 00 	lea    0x2040(%rsp),%rsi
  40298d:	00 
  40298e:	48 8d 7c 24 30       	lea    0x30(%rsp),%rdi
  402993:	e8 6b f8 ff ff       	callq  402203 <rio_readlineb>
  402998:	48 85 c0             	test   %rax,%rax
  40299b:	0f 8f 83 00 00 00    	jg     402a24 <submitr+0x66a>
  4029a1:	48 b8 45 72 72 6f 72 	movabs $0x43203a726f727245,%rax
  4029a8:	3a 20 43 
  4029ab:	48 89 03             	mov    %rax,(%rbx)
  4029ae:	48 b8 6c 69 65 6e 74 	movabs $0x6e7520746e65696c,%rax
  4029b5:	20 75 6e 
  4029b8:	48 89 43 08          	mov    %rax,0x8(%rbx)
  4029bc:	48 b8 61 62 6c 65 20 	movabs $0x206f7420656c6261,%rax
  4029c3:	74 6f 20 
  4029c6:	48 89 43 10          	mov    %rax,0x10(%rbx)
  4029ca:	48 b8 72 65 61 64 20 	movabs $0x6174732064616572,%rax
  4029d1:	73 74 61 
  4029d4:	48 89 43 18          	mov    %rax,0x18(%rbx)
  4029d8:	48 b8 74 75 73 20 6d 	movabs $0x7373656d20737574,%rax
  4029df:	65 73 73 
  4029e2:	48 89 43 20          	mov    %rax,0x20(%rbx)
  4029e6:	48 b8 61 67 65 20 66 	movabs $0x6d6f726620656761,%rax
  4029ed:	72 6f 6d 
  4029f0:	48 89 43 28          	mov    %rax,0x28(%rbx)
  4029f4:	48 b8 20 72 65 73 75 	movabs $0x20746c7573657220,%rax
  4029fb:	6c 74 20 
  4029fe:	48 89 43 30          	mov    %rax,0x30(%rbx)
  402a02:	c7 43 38 73 65 72 76 	movl   $0x76726573,0x38(%rbx)
  402a09:	66 c7 43 3c 65 72    	movw   $0x7265,0x3c(%rbx)
  402a0f:	c6 43 3e 00          	movb   $0x0,0x3e(%rbx)
  402a13:	89 ef                	mov    %ebp,%edi
  402a15:	e8 26 e3 ff ff       	callq  400d40 <close@plt>
  402a1a:	b8 ff ff ff ff       	mov    $0xffffffff,%eax
  402a1f:	e9 dc 00 00 00       	jmpq   402b00 <submitr+0x746>
  402a24:	44 8b 44 24 1c       	mov    0x1c(%rsp),%r8d
  402a29:	41 81 f8 c8 00 00 00 	cmp    $0xc8,%r8d
  402a30:	74 37                	je     402a69 <submitr+0x6af>
  402a32:	4c 8d 8c 24 40 80 00 	lea    0x8040(%rsp),%r9
  402a39:	00 
  402a3a:	b9 38 36 40 00       	mov    $0x403638,%ecx
  402a3f:	48 c7 c2 ff ff ff ff 	mov    $0xffffffffffffffff,%rdx
  402a46:	be 01 00 00 00       	mov    $0x1,%esi
  402a4b:	48 89 df             	mov    %rbx,%rdi
  402a4e:	b8 00 00 00 00       	mov    $0x0,%eax
  402a53:	e8 48 e4 ff ff       	callq  400ea0 <__sprintf_chk@plt>
  402a58:	89 ef                	mov    %ebp,%edi
  402a5a:	e8 e1 e2 ff ff       	callq  400d40 <close@plt>
  402a5f:	b8 ff ff ff ff       	mov    $0xffffffff,%eax
  402a64:	e9 97 00 00 00       	jmpq   402b00 <submitr+0x746>
  402a69:	48 8d b4 24 40 20 00 	lea    0x2040(%rsp),%rsi
  402a70:	00 
  402a71:	48 89 df             	mov    %rbx,%rdi
  402a74:	e8 57 e2 ff ff       	callq  400cd0 <strcpy@plt>
  402a79:	89 ef                	mov    %ebp,%edi
  402a7b:	e8 c0 e2 ff ff       	callq  400d40 <close@plt>
  402a80:	0f b6 03             	movzbl (%rbx),%eax
  402a83:	ba 4f 00 00 00       	mov    $0x4f,%edx
  402a88:	29 c2                	sub    %eax,%edx
  402a8a:	75 22                	jne    402aae <submitr+0x6f4>
  402a8c:	0f b6 4b 01          	movzbl 0x1(%rbx),%ecx
  402a90:	b8 4b 00 00 00       	mov    $0x4b,%eax
  402a95:	29 c8                	sub    %ecx,%eax
  402a97:	75 17                	jne    402ab0 <submitr+0x6f6>
  402a99:	0f b6 4b 02          	movzbl 0x2(%rbx),%ecx
  402a9d:	b8 0a 00 00 00       	mov    $0xa,%eax
  402aa2:	29 c8                	sub    %ecx,%eax
  402aa4:	75 0a                	jne    402ab0 <submitr+0x6f6>
  402aa6:	0f b6 43 03          	movzbl 0x3(%rbx),%eax
  402aaa:	f7 d8                	neg    %eax
  402aac:	eb 02                	jmp    402ab0 <submitr+0x6f6>
  402aae:	89 d0                	mov    %edx,%eax
  402ab0:	85 c0                	test   %eax,%eax
  402ab2:	74 40                	je     402af4 <submitr+0x73a>
  402ab4:	bf 80 36 40 00       	mov    $0x403680,%edi
  402ab9:	b9 05 00 00 00       	mov    $0x5,%ecx
  402abe:	48 89 de             	mov    %rbx,%rsi
  402ac1:	f3 a6                	repz cmpsb %es:(%rdi),%ds:(%rsi)
  402ac3:	0f 97 c0             	seta   %al
  402ac6:	0f 92 c1             	setb   %cl
  402ac9:	29 c8                	sub    %ecx,%eax
  402acb:	0f be c0             	movsbl %al,%eax
  402ace:	85 c0                	test   %eax,%eax
  402ad0:	74 2e                	je     402b00 <submitr+0x746>
  402ad2:	85 d2                	test   %edx,%edx
  402ad4:	75 13                	jne    402ae9 <submitr+0x72f>
  402ad6:	0f b6 43 01          	movzbl 0x1(%rbx),%eax
  402ada:	ba 4b 00 00 00       	mov    $0x4b,%edx
  402adf:	29 c2                	sub    %eax,%edx
  402ae1:	75 06                	jne    402ae9 <submitr+0x72f>
  402ae3:	0f b6 53 02          	movzbl 0x2(%rbx),%edx
  402ae7:	f7 da                	neg    %edx
  402ae9:	85 d2                	test   %edx,%edx
  402aeb:	75 0e                	jne    402afb <submitr+0x741>
  402aed:	b8 00 00 00 00       	mov    $0x0,%eax
  402af2:	eb 0c                	jmp    402b00 <submitr+0x746>
  402af4:	b8 00 00 00 00       	mov    $0x0,%eax
  402af9:	eb 05                	jmp    402b00 <submitr+0x746>
  402afb:	b8 ff ff ff ff       	mov    $0xffffffff,%eax
  402b00:	48 8b 9c 24 48 a0 00 	mov    0xa048(%rsp),%rbx
  402b07:	00 
  402b08:	64 48 33 1c 25 28 00 	xor    %fs:0x28,%rbx
  402b0f:	00 00 
  402b11:	74 05                	je     402b18 <submitr+0x75e>
  402b13:	e8 e8 e1 ff ff       	callq  400d00 <__stack_chk_fail@plt>
  402b18:	48 81 c4 58 a0 00 00 	add    $0xa058,%rsp
  402b1f:	5b                   	pop    %rbx
  402b20:	5d                   	pop    %rbp
  402b21:	41 5c                	pop    %r12
  402b23:	41 5d                	pop    %r13
  402b25:	41 5e                	pop    %r14
  402b27:	41 5f                	pop    %r15
  402b29:	c3                   	retq   

0000000000402b2a <init_timeout>:
  402b2a:	85 ff                	test   %edi,%edi
  402b2c:	74 23                	je     402b51 <init_timeout+0x27>
  402b2e:	53                   	push   %rbx
  402b2f:	89 fb                	mov    %edi,%ebx
  402b31:	85 ff                	test   %edi,%edi
  402b33:	79 05                	jns    402b3a <init_timeout+0x10>
  402b35:	bb 00 00 00 00       	mov    $0x0,%ebx
  402b3a:	be ee 20 40 00       	mov    $0x4020ee,%esi
  402b3f:	bf 0e 00 00 00       	mov    $0xe,%edi
  402b44:	e8 27 e2 ff ff       	callq  400d70 <signal@plt>
  402b49:	89 df                	mov    %ebx,%edi
  402b4b:	e8 e0 e1 ff ff       	callq  400d30 <alarm@plt>
  402b50:	5b                   	pop    %rbx
  402b51:	f3 c3                	repz retq 

0000000000402b53 <init_driver>:
  402b53:	55                   	push   %rbp
  402b54:	53                   	push   %rbx
  402b55:	48 83 ec 28          	sub    $0x28,%rsp
  402b59:	48 89 fd             	mov    %rdi,%rbp
  402b5c:	64 48 8b 04 25 28 00 	mov    %fs:0x28,%rax
  402b63:	00 00 
  402b65:	48 89 44 24 18       	mov    %rax,0x18(%rsp)
  402b6a:	31 c0                	xor    %eax,%eax
  402b6c:	be 01 00 00 00       	mov    $0x1,%esi
  402b71:	bf 0d 00 00 00       	mov    $0xd,%edi
  402b76:	e8 f5 e1 ff ff       	callq  400d70 <signal@plt>
  402b7b:	be 01 00 00 00       	mov    $0x1,%esi
  402b80:	bf 1d 00 00 00       	mov    $0x1d,%edi
  402b85:	e8 e6 e1 ff ff       	callq  400d70 <signal@plt>
  402b8a:	be 01 00 00 00       	mov    $0x1,%esi
  402b8f:	bf 1d 00 00 00       	mov    $0x1d,%edi
  402b94:	e8 d7 e1 ff ff       	callq  400d70 <signal@plt>
  402b99:	ba 00 00 00 00       	mov    $0x0,%edx
  402b9e:	be 01 00 00 00       	mov    $0x1,%esi
  402ba3:	bf 02 00 00 00       	mov    $0x2,%edi
  402ba8:	e8 03 e3 ff ff       	callq  400eb0 <socket@plt>
  402bad:	85 c0                	test   %eax,%eax
  402baf:	79 4f                	jns    402c00 <init_driver+0xad>
  402bb1:	48 b8 45 72 72 6f 72 	movabs $0x43203a726f727245,%rax
  402bb8:	3a 20 43 
  402bbb:	48 89 45 00          	mov    %rax,0x0(%rbp)
  402bbf:	48 b8 6c 69 65 6e 74 	movabs $0x6e7520746e65696c,%rax
  402bc6:	20 75 6e 
  402bc9:	48 89 45 08          	mov    %rax,0x8(%rbp)
  402bcd:	48 b8 61 62 6c 65 20 	movabs $0x206f7420656c6261,%rax
  402bd4:	74 6f 20 
  402bd7:	48 89 45 10          	mov    %rax,0x10(%rbp)
  402bdb:	48 b8 63 72 65 61 74 	movabs $0x7320657461657263,%rax
  402be2:	65 20 73 
  402be5:	48 89 45 18          	mov    %rax,0x18(%rbp)
  402be9:	c7 45 20 6f 63 6b 65 	movl   $0x656b636f,0x20(%rbp)
  402bf0:	66 c7 45 24 74 00    	movw   $0x74,0x24(%rbp)
  402bf6:	b8 ff ff ff ff       	mov    $0xffffffff,%eax
  402bfb:	e9 2a 01 00 00       	jmpq   402d2a <init_driver+0x1d7>
  402c00:	89 c3                	mov    %eax,%ebx
  402c02:	bf 85 36 40 00       	mov    $0x403685,%edi
  402c07:	e8 74 e1 ff ff       	callq  400d80 <gethostbyname@plt>
  402c0c:	48 85 c0             	test   %rax,%rax
  402c0f:	75 68                	jne    402c79 <init_driver+0x126>
  402c11:	48 b8 45 72 72 6f 72 	movabs $0x44203a726f727245,%rax
  402c18:	3a 20 44 
  402c1b:	48 89 45 00          	mov    %rax,0x0(%rbp)
  402c1f:	48 b8 4e 53 20 69 73 	movabs $0x6e7520736920534e,%rax
  402c26:	20 75 6e 
  402c29:	48 89 45 08          	mov    %rax,0x8(%rbp)
  402c2d:	48 b8 61 62 6c 65 20 	movabs $0x206f7420656c6261,%rax
  402c34:	74 6f 20 
  402c37:	48 89 45 10          	mov    %rax,0x10(%rbp)
  402c3b:	48 b8 72 65 73 6f 6c 	movabs $0x2065766c6f736572,%rax
  402c42:	76 65 20 
  402c45:	48 89 45 18          	mov    %rax,0x18(%rbp)
  402c49:	48 b8 73 65 72 76 65 	movabs $0x6120726576726573,%rax
  402c50:	72 20 61 
  402c53:	48 89 45 20          	mov    %rax,0x20(%rbp)
  402c57:	c7 45 28 64 64 72 65 	movl   $0x65726464,0x28(%rbp)
  402c5e:	66 c7 45 2c 73 73    	movw   $0x7373,0x2c(%rbp)
  402c64:	c6 45 2e 00          	movb   $0x0,0x2e(%rbp)
  402c68:	89 df                	mov    %ebx,%edi
  402c6a:	e8 d1 e0 ff ff       	callq  400d40 <close@plt>
  402c6f:	b8 ff ff ff ff       	mov    $0xffffffff,%eax
  402c74:	e9 b1 00 00 00       	jmpq   402d2a <init_driver+0x1d7>
  402c79:	48 c7 04 24 00 00 00 	movq   $0x0,(%rsp)
  402c80:	00 
  402c81:	48 c7 44 24 08 00 00 	movq   $0x0,0x8(%rsp)
  402c88:	00 00 
  402c8a:	66 c7 04 24 02 00    	movw   $0x2,(%rsp)
  402c90:	48 63 50 14          	movslq 0x14(%rax),%rdx
  402c94:	48 8b 40 18          	mov    0x18(%rax),%rax
  402c98:	48 8b 30             	mov    (%rax),%rsi
  402c9b:	48 8d 7c 24 04       	lea    0x4(%rsp),%rdi
  402ca0:	b9 0c 00 00 00       	mov    $0xc,%ecx
  402ca5:	e8 e6 e0 ff ff       	callq  400d90 <__memmove_chk@plt>
  402caa:	66 c7 44 24 02 3c 9a 	movw   $0x9a3c,0x2(%rsp)
  402cb1:	ba 10 00 00 00       	mov    $0x10,%edx
  402cb6:	48 89 e6             	mov    %rsp,%rsi
  402cb9:	89 df                	mov    %ebx,%edi
  402cbb:	e8 c0 e1 ff ff       	callq  400e80 <connect@plt>
  402cc0:	85 c0                	test   %eax,%eax
  402cc2:	79 50                	jns    402d14 <init_driver+0x1c1>
  402cc4:	48 b8 45 72 72 6f 72 	movabs $0x55203a726f727245,%rax
  402ccb:	3a 20 55 
  402cce:	48 89 45 00          	mov    %rax,0x0(%rbp)
  402cd2:	48 b8 6e 61 62 6c 65 	movabs $0x6f7420656c62616e,%rax
  402cd9:	20 74 6f 
  402cdc:	48 89 45 08          	mov    %rax,0x8(%rbp)
  402ce0:	48 b8 20 63 6f 6e 6e 	movabs $0x7463656e6e6f6320,%rax
  402ce7:	65 63 74 
  402cea:	48 89 45 10          	mov    %rax,0x10(%rbp)
  402cee:	48 b8 20 74 6f 20 73 	movabs $0x76726573206f7420,%rax
  402cf5:	65 72 76 
  402cf8:	48 89 45 18          	mov    %rax,0x18(%rbp)
  402cfc:	66 c7 45 20 65 72    	movw   $0x7265,0x20(%rbp)
  402d02:	c6 45 22 00          	movb   $0x0,0x22(%rbp)
  402d06:	89 df                	mov    %ebx,%edi
  402d08:	e8 33 e0 ff ff       	callq  400d40 <close@plt>
  402d0d:	b8 ff ff ff ff       	mov    $0xffffffff,%eax
  402d12:	eb 16                	jmp    402d2a <init_driver+0x1d7>
  402d14:	89 df                	mov    %ebx,%edi
  402d16:	e8 25 e0 ff ff       	callq  400d40 <close@plt>
  402d1b:	66 c7 45 00 4f 4b    	movw   $0x4b4f,0x0(%rbp)
  402d21:	c6 45 02 00          	movb   $0x0,0x2(%rbp)
  402d25:	b8 00 00 00 00       	mov    $0x0,%eax
  402d2a:	48 8b 4c 24 18       	mov    0x18(%rsp),%rcx
  402d2f:	64 48 33 0c 25 28 00 	xor    %fs:0x28,%rcx
  402d36:	00 00 
  402d38:	74 05                	je     402d3f <init_driver+0x1ec>
  402d3a:	e8 c1 df ff ff       	callq  400d00 <__stack_chk_fail@plt>
  402d3f:	48 83 c4 28          	add    $0x28,%rsp
  402d43:	5b                   	pop    %rbx
  402d44:	5d                   	pop    %rbp
  402d45:	c3                   	retq   

0000000000402d46 <driver_post>:
  402d46:	53                   	push   %rbx
  402d47:	4c 89 cb             	mov    %r9,%rbx
  402d4a:	45 85 c0             	test   %r8d,%r8d
  402d4d:	74 27                	je     402d76 <driver_post+0x30>
  402d4f:	48 89 ca             	mov    %rcx,%rdx
  402d52:	be 9d 36 40 00       	mov    $0x40369d,%esi
  402d57:	bf 01 00 00 00       	mov    $0x1,%edi
  402d5c:	b8 00 00 00 00       	mov    $0x0,%eax
  402d61:	e8 ba e0 ff ff       	callq  400e20 <__printf_chk@plt>
  402d66:	66 c7 03 4f 4b       	movw   $0x4b4f,(%rbx)
  402d6b:	c6 43 02 00          	movb   $0x0,0x2(%rbx)
  402d6f:	b8 00 00 00 00       	mov    $0x0,%eax
  402d74:	eb 3f                	jmp    402db5 <driver_post+0x6f>
  402d76:	48 85 ff             	test   %rdi,%rdi
  402d79:	74 2c                	je     402da7 <driver_post+0x61>
  402d7b:	80 3f 00             	cmpb   $0x0,(%rdi)
  402d7e:	74 27                	je     402da7 <driver_post+0x61>
  402d80:	48 83 ec 08          	sub    $0x8,%rsp
  402d84:	41 51                	push   %r9
  402d86:	49 89 c9             	mov    %rcx,%r9
  402d89:	49 89 d0             	mov    %rdx,%r8
  402d8c:	48 89 f9             	mov    %rdi,%rcx
  402d8f:	48 89 f2             	mov    %rsi,%rdx
  402d92:	be 9a 3c 00 00       	mov    $0x3c9a,%esi
  402d97:	bf 85 36 40 00       	mov    $0x403685,%edi
  402d9c:	e8 19 f6 ff ff       	callq  4023ba <submitr>
  402da1:	48 83 c4 10          	add    $0x10,%rsp
  402da5:	eb 0e                	jmp    402db5 <driver_post+0x6f>
  402da7:	66 c7 03 4f 4b       	movw   $0x4b4f,(%rbx)
  402dac:	c6 43 02 00          	movb   $0x0,0x2(%rbx)
  402db0:	b8 00 00 00 00       	mov    $0x0,%eax
  402db5:	5b                   	pop    %rbx
  402db6:	c3                   	retq   

0000000000402db7 <check>:
  402db7:	89 f8                	mov    %edi,%eax
  402db9:	c1 e8 1c             	shr    $0x1c,%eax
  402dbc:	85 c0                	test   %eax,%eax
  402dbe:	74 1d                	je     402ddd <check+0x26>
  402dc0:	b9 00 00 00 00       	mov    $0x0,%ecx
  402dc5:	eb 0b                	jmp    402dd2 <check+0x1b>
  402dc7:	89 f8                	mov    %edi,%eax
  402dc9:	d3 e8                	shr    %cl,%eax
  402dcb:	3c 0a                	cmp    $0xa,%al
  402dcd:	74 14                	je     402de3 <check+0x2c>
  402dcf:	83 c1 08             	add    $0x8,%ecx
  402dd2:	83 f9 1f             	cmp    $0x1f,%ecx
  402dd5:	7e f0                	jle    402dc7 <check+0x10>
  402dd7:	b8 01 00 00 00       	mov    $0x1,%eax
  402ddc:	c3                   	retq   
  402ddd:	b8 00 00 00 00       	mov    $0x0,%eax
  402de2:	c3                   	retq   
  402de3:	b8 00 00 00 00       	mov    $0x0,%eax
  402de8:	c3                   	retq   

0000000000402de9 <gencookie>:
  402de9:	53                   	push   %rbx
  402dea:	83 c7 01             	add    $0x1,%edi
  402ded:	e8 be de ff ff       	callq  400cb0 <srandom@plt>
  402df2:	e8 e9 df ff ff       	callq  400de0 <random@plt>
  402df7:	89 c3                	mov    %eax,%ebx
  402df9:	89 c7                	mov    %eax,%edi
  402dfb:	e8 b7 ff ff ff       	callq  402db7 <check>
  402e00:	85 c0                	test   %eax,%eax
  402e02:	74 ee                	je     402df2 <gencookie+0x9>
  402e04:	89 d8                	mov    %ebx,%eax
  402e06:	5b                   	pop    %rbx
  402e07:	c3                   	retq   
  402e08:	0f 1f 84 00 00 00 00 	nopl   0x0(%rax,%rax,1)
  402e0f:	00 

0000000000402e10 <__libc_csu_init>:
  402e10:	41 57                	push   %r15
  402e12:	41 56                	push   %r14
  402e14:	41 89 ff             	mov    %edi,%r15d
  402e17:	41 55                	push   %r13
  402e19:	41 54                	push   %r12
  402e1b:	4c 8d 25 ee 0f 20 00 	lea    0x200fee(%rip),%r12        # 603e10 <__frame_dummy_init_array_entry>
  402e22:	55                   	push   %rbp
  402e23:	48 8d 2d ee 0f 20 00 	lea    0x200fee(%rip),%rbp        # 603e18 <__init_array_end>
  402e2a:	53                   	push   %rbx
  402e2b:	49 89 f6             	mov    %rsi,%r14
  402e2e:	49 89 d5             	mov    %rdx,%r13
  402e31:	31 db                	xor    %ebx,%ebx
  402e33:	4c 29 e5             	sub    %r12,%rbp
  402e36:	48 83 ec 08          	sub    $0x8,%rsp
  402e3a:	48 c1 fd 03          	sar    $0x3,%rbp
  402e3e:	e8 1d de ff ff       	callq  400c60 <_init>
  402e43:	48 85 ed             	test   %rbp,%rbp
  402e46:	74 1e                	je     402e66 <__libc_csu_init+0x56>
  402e48:	0f 1f 84 00 00 00 00 	nopl   0x0(%rax,%rax,1)
  402e4f:	00 
  402e50:	4c 89 ea             	mov    %r13,%rdx
  402e53:	4c 89 f6             	mov    %r14,%rsi
  402e56:	44 89 ff             	mov    %r15d,%edi
  402e59:	41 ff 14 dc          	callq  *(%r12,%rbx,8)
  402e5d:	48 83 c3 01          	add    $0x1,%rbx
  402e61:	48 39 eb             	cmp    %rbp,%rbx
  402e64:	75 ea                	jne    402e50 <__libc_csu_init+0x40>
  402e66:	48 83 c4 08          	add    $0x8,%rsp
  402e6a:	5b                   	pop    %rbx
  402e6b:	5d                   	pop    %rbp
  402e6c:	41 5c                	pop    %r12
  402e6e:	41 5d                	pop    %r13
  402e70:	41 5e                	pop    %r14
  402e72:	41 5f                	pop    %r15
  402e74:	c3                   	retq   
  402e75:	90                   	nop
  402e76:	66 2e 0f 1f 84 00 00 	nopw   %cs:0x0(%rax,%rax,1)
  402e7d:	00 00 00 

0000000000402e80 <__libc_csu_fini>:
  402e80:	f3 c3                	repz retq 

Disassembly of section .fini:

0000000000402e84 <_fini>:
  402e84:	48 83 ec 08          	sub    $0x8,%rsp
  402e88:	48 83 c4 08          	add    $0x8,%rsp
  402e8c:	c3                   	retq   
