
rtarget:     file format elf64-x86-64


Disassembly of section .init:

0000000000400c60 <_init>:
  400c60:	48 83 ec 08          	sub    $0x8,%rsp
  400c64:	48 8b 05 8d 43 20 00 	mov    0x20438d(%rip),%rax        # 604ff8 <_DYNAMIC+0x1d0>
  400c6b:	48 85 c0             	test   %rax,%rax
  400c6e:	74 05                	je     400c75 <_init+0x15>
  400c70:	e8 2b 01 00 00       	callq  400da0 <__gmon_start__@plt>
  400c75:	48 83 c4 08          	add    $0x8,%rsp
  400c79:	c3                   	retq   

Disassembly of section .plt:

0000000000400c80 <strcasecmp@plt-0x10>:
  400c80:	ff 35 82 43 20 00    	pushq  0x204382(%rip)        # 605008 <_GLOBAL_OFFSET_TABLE_+0x8>
  400c86:	ff 25 84 43 20 00    	jmpq   *0x204384(%rip)        # 605010 <_GLOBAL_OFFSET_TABLE_+0x10>
  400c8c:	0f 1f 40 00          	nopl   0x0(%rax)

0000000000400c90 <strcasecmp@plt>:
  400c90:	ff 25 82 43 20 00    	jmpq   *0x204382(%rip)        # 605018 <_GLOBAL_OFFSET_TABLE_+0x18>
  400c96:	68 00 00 00 00       	pushq  $0x0
  400c9b:	e9 e0 ff ff ff       	jmpq   400c80 <_init+0x20>

0000000000400ca0 <__errno_location@plt>:
  400ca0:	ff 25 7a 43 20 00    	jmpq   *0x20437a(%rip)        # 605020 <_GLOBAL_OFFSET_TABLE_+0x20>
  400ca6:	68 01 00 00 00       	pushq  $0x1
  400cab:	e9 d0 ff ff ff       	jmpq   400c80 <_init+0x20>

0000000000400cb0 <srandom@plt>:
  400cb0:	ff 25 72 43 20 00    	jmpq   *0x204372(%rip)        # 605028 <_GLOBAL_OFFSET_TABLE_+0x28>
  400cb6:	68 02 00 00 00       	pushq  $0x2
  400cbb:	e9 c0 ff ff ff       	jmpq   400c80 <_init+0x20>

0000000000400cc0 <strncmp@plt>:
  400cc0:	ff 25 6a 43 20 00    	jmpq   *0x20436a(%rip)        # 605030 <_GLOBAL_OFFSET_TABLE_+0x30>
  400cc6:	68 03 00 00 00       	pushq  $0x3
  400ccb:	e9 b0 ff ff ff       	jmpq   400c80 <_init+0x20>

0000000000400cd0 <strcpy@plt>:
  400cd0:	ff 25 62 43 20 00    	jmpq   *0x204362(%rip)        # 605038 <_GLOBAL_OFFSET_TABLE_+0x38>
  400cd6:	68 04 00 00 00       	pushq  $0x4
  400cdb:	e9 a0 ff ff ff       	jmpq   400c80 <_init+0x20>

0000000000400ce0 <puts@plt>:
  400ce0:	ff 25 5a 43 20 00    	jmpq   *0x20435a(%rip)        # 605040 <_GLOBAL_OFFSET_TABLE_+0x40>
  400ce6:	68 05 00 00 00       	pushq  $0x5
  400ceb:	e9 90 ff ff ff       	jmpq   400c80 <_init+0x20>

0000000000400cf0 <write@plt>:
  400cf0:	ff 25 52 43 20 00    	jmpq   *0x204352(%rip)        # 605048 <_GLOBAL_OFFSET_TABLE_+0x48>
  400cf6:	68 06 00 00 00       	pushq  $0x6
  400cfb:	e9 80 ff ff ff       	jmpq   400c80 <_init+0x20>

0000000000400d00 <__stack_chk_fail@plt>:
  400d00:	ff 25 4a 43 20 00    	jmpq   *0x20434a(%rip)        # 605050 <_GLOBAL_OFFSET_TABLE_+0x50>
  400d06:	68 07 00 00 00       	pushq  $0x7
  400d0b:	e9 70 ff ff ff       	jmpq   400c80 <_init+0x20>

0000000000400d10 <mmap@plt>:
  400d10:	ff 25 42 43 20 00    	jmpq   *0x204342(%rip)        # 605058 <_GLOBAL_OFFSET_TABLE_+0x58>
  400d16:	68 08 00 00 00       	pushq  $0x8
  400d1b:	e9 60 ff ff ff       	jmpq   400c80 <_init+0x20>

0000000000400d20 <memset@plt>:
  400d20:	ff 25 3a 43 20 00    	jmpq   *0x20433a(%rip)        # 605060 <_GLOBAL_OFFSET_TABLE_+0x60>
  400d26:	68 09 00 00 00       	pushq  $0x9
  400d2b:	e9 50 ff ff ff       	jmpq   400c80 <_init+0x20>

0000000000400d30 <alarm@plt>:
  400d30:	ff 25 32 43 20 00    	jmpq   *0x204332(%rip)        # 605068 <_GLOBAL_OFFSET_TABLE_+0x68>
  400d36:	68 0a 00 00 00       	pushq  $0xa
  400d3b:	e9 40 ff ff ff       	jmpq   400c80 <_init+0x20>

0000000000400d40 <close@plt>:
  400d40:	ff 25 2a 43 20 00    	jmpq   *0x20432a(%rip)        # 605070 <_GLOBAL_OFFSET_TABLE_+0x70>
  400d46:	68 0b 00 00 00       	pushq  $0xb
  400d4b:	e9 30 ff ff ff       	jmpq   400c80 <_init+0x20>

0000000000400d50 <read@plt>:
  400d50:	ff 25 22 43 20 00    	jmpq   *0x204322(%rip)        # 605078 <_GLOBAL_OFFSET_TABLE_+0x78>
  400d56:	68 0c 00 00 00       	pushq  $0xc
  400d5b:	e9 20 ff ff ff       	jmpq   400c80 <_init+0x20>

0000000000400d60 <__libc_start_main@plt>:
  400d60:	ff 25 1a 43 20 00    	jmpq   *0x20431a(%rip)        # 605080 <_GLOBAL_OFFSET_TABLE_+0x80>
  400d66:	68 0d 00 00 00       	pushq  $0xd
  400d6b:	e9 10 ff ff ff       	jmpq   400c80 <_init+0x20>

0000000000400d70 <signal@plt>:
  400d70:	ff 25 12 43 20 00    	jmpq   *0x204312(%rip)        # 605088 <_GLOBAL_OFFSET_TABLE_+0x88>
  400d76:	68 0e 00 00 00       	pushq  $0xe
  400d7b:	e9 00 ff ff ff       	jmpq   400c80 <_init+0x20>

0000000000400d80 <gethostbyname@plt>:
  400d80:	ff 25 0a 43 20 00    	jmpq   *0x20430a(%rip)        # 605090 <_GLOBAL_OFFSET_TABLE_+0x90>
  400d86:	68 0f 00 00 00       	pushq  $0xf
  400d8b:	e9 f0 fe ff ff       	jmpq   400c80 <_init+0x20>

0000000000400d90 <__memmove_chk@plt>:
  400d90:	ff 25 02 43 20 00    	jmpq   *0x204302(%rip)        # 605098 <_GLOBAL_OFFSET_TABLE_+0x98>
  400d96:	68 10 00 00 00       	pushq  $0x10
  400d9b:	e9 e0 fe ff ff       	jmpq   400c80 <_init+0x20>

0000000000400da0 <__gmon_start__@plt>:
  400da0:	ff 25 fa 42 20 00    	jmpq   *0x2042fa(%rip)        # 6050a0 <_GLOBAL_OFFSET_TABLE_+0xa0>
  400da6:	68 11 00 00 00       	pushq  $0x11
  400dab:	e9 d0 fe ff ff       	jmpq   400c80 <_init+0x20>

0000000000400db0 <strtol@plt>:
  400db0:	ff 25 f2 42 20 00    	jmpq   *0x2042f2(%rip)        # 6050a8 <_GLOBAL_OFFSET_TABLE_+0xa8>
  400db6:	68 12 00 00 00       	pushq  $0x12
  400dbb:	e9 c0 fe ff ff       	jmpq   400c80 <_init+0x20>

0000000000400dc0 <memcpy@plt>:
  400dc0:	ff 25 ea 42 20 00    	jmpq   *0x2042ea(%rip)        # 6050b0 <_GLOBAL_OFFSET_TABLE_+0xb0>
  400dc6:	68 13 00 00 00       	pushq  $0x13
  400dcb:	e9 b0 fe ff ff       	jmpq   400c80 <_init+0x20>

0000000000400dd0 <time@plt>:
  400dd0:	ff 25 e2 42 20 00    	jmpq   *0x2042e2(%rip)        # 6050b8 <_GLOBAL_OFFSET_TABLE_+0xb8>
  400dd6:	68 14 00 00 00       	pushq  $0x14
  400ddb:	e9 a0 fe ff ff       	jmpq   400c80 <_init+0x20>

0000000000400de0 <random@plt>:
  400de0:	ff 25 da 42 20 00    	jmpq   *0x2042da(%rip)        # 6050c0 <_GLOBAL_OFFSET_TABLE_+0xc0>
  400de6:	68 15 00 00 00       	pushq  $0x15
  400deb:	e9 90 fe ff ff       	jmpq   400c80 <_init+0x20>

0000000000400df0 <_IO_getc@plt>:
  400df0:	ff 25 d2 42 20 00    	jmpq   *0x2042d2(%rip)        # 6050c8 <_GLOBAL_OFFSET_TABLE_+0xc8>
  400df6:	68 16 00 00 00       	pushq  $0x16
  400dfb:	e9 80 fe ff ff       	jmpq   400c80 <_init+0x20>

0000000000400e00 <__isoc99_sscanf@plt>:
  400e00:	ff 25 ca 42 20 00    	jmpq   *0x2042ca(%rip)        # 6050d0 <_GLOBAL_OFFSET_TABLE_+0xd0>
  400e06:	68 17 00 00 00       	pushq  $0x17
  400e0b:	e9 70 fe ff ff       	jmpq   400c80 <_init+0x20>

0000000000400e10 <munmap@plt>:
  400e10:	ff 25 c2 42 20 00    	jmpq   *0x2042c2(%rip)        # 6050d8 <_GLOBAL_OFFSET_TABLE_+0xd8>
  400e16:	68 18 00 00 00       	pushq  $0x18
  400e1b:	e9 60 fe ff ff       	jmpq   400c80 <_init+0x20>

0000000000400e20 <__printf_chk@plt>:
  400e20:	ff 25 ba 42 20 00    	jmpq   *0x2042ba(%rip)        # 6050e0 <_GLOBAL_OFFSET_TABLE_+0xe0>
  400e26:	68 19 00 00 00       	pushq  $0x19
  400e2b:	e9 50 fe ff ff       	jmpq   400c80 <_init+0x20>

0000000000400e30 <fopen@plt>:
  400e30:	ff 25 b2 42 20 00    	jmpq   *0x2042b2(%rip)        # 6050e8 <_GLOBAL_OFFSET_TABLE_+0xe8>
  400e36:	68 1a 00 00 00       	pushq  $0x1a
  400e3b:	e9 40 fe ff ff       	jmpq   400c80 <_init+0x20>

0000000000400e40 <getopt@plt>:
  400e40:	ff 25 aa 42 20 00    	jmpq   *0x2042aa(%rip)        # 6050f0 <_GLOBAL_OFFSET_TABLE_+0xf0>
  400e46:	68 1b 00 00 00       	pushq  $0x1b
  400e4b:	e9 30 fe ff ff       	jmpq   400c80 <_init+0x20>

0000000000400e50 <strtoul@plt>:
  400e50:	ff 25 a2 42 20 00    	jmpq   *0x2042a2(%rip)        # 6050f8 <_GLOBAL_OFFSET_TABLE_+0xf8>
  400e56:	68 1c 00 00 00       	pushq  $0x1c
  400e5b:	e9 20 fe ff ff       	jmpq   400c80 <_init+0x20>

0000000000400e60 <gethostname@plt>:
  400e60:	ff 25 9a 42 20 00    	jmpq   *0x20429a(%rip)        # 605100 <_GLOBAL_OFFSET_TABLE_+0x100>
  400e66:	68 1d 00 00 00       	pushq  $0x1d
  400e6b:	e9 10 fe ff ff       	jmpq   400c80 <_init+0x20>

0000000000400e70 <exit@plt>:
  400e70:	ff 25 92 42 20 00    	jmpq   *0x204292(%rip)        # 605108 <_GLOBAL_OFFSET_TABLE_+0x108>
  400e76:	68 1e 00 00 00       	pushq  $0x1e
  400e7b:	e9 00 fe ff ff       	jmpq   400c80 <_init+0x20>

0000000000400e80 <connect@plt>:
  400e80:	ff 25 8a 42 20 00    	jmpq   *0x20428a(%rip)        # 605110 <_GLOBAL_OFFSET_TABLE_+0x110>
  400e86:	68 1f 00 00 00       	pushq  $0x1f
  400e8b:	e9 f0 fd ff ff       	jmpq   400c80 <_init+0x20>

0000000000400e90 <__fprintf_chk@plt>:
  400e90:	ff 25 82 42 20 00    	jmpq   *0x204282(%rip)        # 605118 <_GLOBAL_OFFSET_TABLE_+0x118>
  400e96:	68 20 00 00 00       	pushq  $0x20
  400e9b:	e9 e0 fd ff ff       	jmpq   400c80 <_init+0x20>

0000000000400ea0 <__sprintf_chk@plt>:
  400ea0:	ff 25 7a 42 20 00    	jmpq   *0x20427a(%rip)        # 605120 <_GLOBAL_OFFSET_TABLE_+0x120>
  400ea6:	68 21 00 00 00       	pushq  $0x21
  400eab:	e9 d0 fd ff ff       	jmpq   400c80 <_init+0x20>

0000000000400eb0 <socket@plt>:
  400eb0:	ff 25 72 42 20 00    	jmpq   *0x204272(%rip)        # 605128 <_GLOBAL_OFFSET_TABLE_+0x128>
  400eb6:	68 22 00 00 00       	pushq  $0x22
  400ebb:	e9 c0 fd ff ff       	jmpq   400c80 <_init+0x20>

Disassembly of section .text:

0000000000400ec0 <_start>:
  400ec0:	31 ed                	xor    %ebp,%ebp
  400ec2:	49 89 d1             	mov    %rdx,%r9
  400ec5:	5e                   	pop    %rsi
  400ec6:	48 89 e2             	mov    %rsp,%rdx
  400ec9:	48 83 e4 f0          	and    $0xfffffffffffffff0,%rsp
  400ecd:	50                   	push   %rax
  400ece:	54                   	push   %rsp
  400ecf:	49 c7 c0 a0 2f 40 00 	mov    $0x402fa0,%r8
  400ed6:	48 c7 c1 30 2f 40 00 	mov    $0x402f30,%rcx
  400edd:	48 c7 c7 c5 11 40 00 	mov    $0x4011c5,%rdi
  400ee4:	e8 77 fe ff ff       	callq  400d60 <__libc_start_main@plt>
  400ee9:	f4                   	hlt    
  400eea:	66 0f 1f 44 00 00    	nopw   0x0(%rax,%rax,1)

0000000000400ef0 <deregister_tm_clones>:
  400ef0:	b8 b7 54 60 00       	mov    $0x6054b7,%eax
  400ef5:	55                   	push   %rbp
  400ef6:	48 2d b0 54 60 00    	sub    $0x6054b0,%rax
  400efc:	48 83 f8 0e          	cmp    $0xe,%rax
  400f00:	48 89 e5             	mov    %rsp,%rbp
  400f03:	76 1b                	jbe    400f20 <deregister_tm_clones+0x30>
  400f05:	b8 00 00 00 00       	mov    $0x0,%eax
  400f0a:	48 85 c0             	test   %rax,%rax
  400f0d:	74 11                	je     400f20 <deregister_tm_clones+0x30>
  400f0f:	5d                   	pop    %rbp
  400f10:	bf b0 54 60 00       	mov    $0x6054b0,%edi
  400f15:	ff e0                	jmpq   *%rax
  400f17:	66 0f 1f 84 00 00 00 	nopw   0x0(%rax,%rax,1)
  400f1e:	00 00 
  400f20:	5d                   	pop    %rbp
  400f21:	c3                   	retq   
  400f22:	0f 1f 40 00          	nopl   0x0(%rax)
  400f26:	66 2e 0f 1f 84 00 00 	nopw   %cs:0x0(%rax,%rax,1)
  400f2d:	00 00 00 

0000000000400f30 <register_tm_clones>:
  400f30:	be b0 54 60 00       	mov    $0x6054b0,%esi
  400f35:	55                   	push   %rbp
  400f36:	48 81 ee b0 54 60 00 	sub    $0x6054b0,%rsi
  400f3d:	48 c1 fe 03          	sar    $0x3,%rsi
  400f41:	48 89 e5             	mov    %rsp,%rbp
  400f44:	48 89 f0             	mov    %rsi,%rax
  400f47:	48 c1 e8 3f          	shr    $0x3f,%rax
  400f4b:	48 01 c6             	add    %rax,%rsi
  400f4e:	48 d1 fe             	sar    %rsi
  400f51:	74 15                	je     400f68 <register_tm_clones+0x38>
  400f53:	b8 00 00 00 00       	mov    $0x0,%eax
  400f58:	48 85 c0             	test   %rax,%rax
  400f5b:	74 0b                	je     400f68 <register_tm_clones+0x38>
  400f5d:	5d                   	pop    %rbp
  400f5e:	bf b0 54 60 00       	mov    $0x6054b0,%edi
  400f63:	ff e0                	jmpq   *%rax
  400f65:	0f 1f 00             	nopl   (%rax)
  400f68:	5d                   	pop    %rbp
  400f69:	c3                   	retq   
  400f6a:	66 0f 1f 44 00 00    	nopw   0x0(%rax,%rax,1)

0000000000400f70 <__do_global_dtors_aux>:
  400f70:	80 3d 71 45 20 00 00 	cmpb   $0x0,0x204571(%rip)        # 6054e8 <completed.7568>
  400f77:	75 11                	jne    400f8a <__do_global_dtors_aux+0x1a>
  400f79:	55                   	push   %rbp
  400f7a:	48 89 e5             	mov    %rsp,%rbp
  400f7d:	e8 6e ff ff ff       	callq  400ef0 <deregister_tm_clones>
  400f82:	5d                   	pop    %rbp
  400f83:	c6 05 5e 45 20 00 01 	movb   $0x1,0x20455e(%rip)        # 6054e8 <completed.7568>
  400f8a:	f3 c3                	repz retq 
  400f8c:	0f 1f 40 00          	nopl   0x0(%rax)

0000000000400f90 <frame_dummy>:
  400f90:	bf 20 4e 60 00       	mov    $0x604e20,%edi
  400f95:	48 83 3f 00          	cmpq   $0x0,(%rdi)
  400f99:	75 05                	jne    400fa0 <frame_dummy+0x10>
  400f9b:	eb 93                	jmp    400f30 <register_tm_clones>
  400f9d:	0f 1f 00             	nopl   (%rax)
  400fa0:	b8 00 00 00 00       	mov    $0x0,%eax
  400fa5:	48 85 c0             	test   %rax,%rax
  400fa8:	74 f1                	je     400f9b <frame_dummy+0xb>
  400faa:	55                   	push   %rbp
  400fab:	48 89 e5             	mov    %rsp,%rbp
  400fae:	ff d0                	callq  *%rax
  400fb0:	5d                   	pop    %rbp
  400fb1:	e9 7a ff ff ff       	jmpq   400f30 <register_tm_clones>

0000000000400fb6 <usage>:
  400fb6:	48 83 ec 08          	sub    $0x8,%rsp
  400fba:	48 89 fa             	mov    %rdi,%rdx
  400fbd:	83 3d 64 45 20 00 00 	cmpl   $0x0,0x204564(%rip)        # 605528 <is_checker>
  400fc4:	74 3e                	je     401004 <usage+0x4e>
  400fc6:	be b8 2f 40 00       	mov    $0x402fb8,%esi
  400fcb:	bf 01 00 00 00       	mov    $0x1,%edi
  400fd0:	b8 00 00 00 00       	mov    $0x0,%eax
  400fd5:	e8 46 fe ff ff       	callq  400e20 <__printf_chk@plt>
  400fda:	bf f0 2f 40 00       	mov    $0x402ff0,%edi
  400fdf:	e8 fc fc ff ff       	callq  400ce0 <puts@plt>
  400fe4:	bf 68 31 40 00       	mov    $0x403168,%edi
  400fe9:	e8 f2 fc ff ff       	callq  400ce0 <puts@plt>
  400fee:	bf 18 30 40 00       	mov    $0x403018,%edi
  400ff3:	e8 e8 fc ff ff       	callq  400ce0 <puts@plt>
  400ff8:	bf 82 31 40 00       	mov    $0x403182,%edi
  400ffd:	e8 de fc ff ff       	callq  400ce0 <puts@plt>
  401002:	eb 32                	jmp    401036 <usage+0x80>
  401004:	be 9e 31 40 00       	mov    $0x40319e,%esi
  401009:	bf 01 00 00 00       	mov    $0x1,%edi
  40100e:	b8 00 00 00 00       	mov    $0x0,%eax
  401013:	e8 08 fe ff ff       	callq  400e20 <__printf_chk@plt>
  401018:	bf 40 30 40 00       	mov    $0x403040,%edi
  40101d:	e8 be fc ff ff       	callq  400ce0 <puts@plt>
  401022:	bf 68 30 40 00       	mov    $0x403068,%edi
  401027:	e8 b4 fc ff ff       	callq  400ce0 <puts@plt>
  40102c:	bf bc 31 40 00       	mov    $0x4031bc,%edi
  401031:	e8 aa fc ff ff       	callq  400ce0 <puts@plt>
  401036:	bf 00 00 00 00       	mov    $0x0,%edi
  40103b:	e8 30 fe ff ff       	callq  400e70 <exit@plt>

0000000000401040 <initialize_target>:
  401040:	55                   	push   %rbp
  401041:	53                   	push   %rbx
  401042:	48 81 ec 18 21 00 00 	sub    $0x2118,%rsp
  401049:	89 f5                	mov    %esi,%ebp
  40104b:	64 48 8b 04 25 28 00 	mov    %fs:0x28,%rax
  401052:	00 00 
  401054:	48 89 84 24 08 21 00 	mov    %rax,0x2108(%rsp)
  40105b:	00 
  40105c:	31 c0                	xor    %eax,%eax
  40105e:	89 3d b4 44 20 00    	mov    %edi,0x2044b4(%rip)        # 605518 <check_level>
  401064:	8b 3d fe 40 20 00    	mov    0x2040fe(%rip),%edi        # 605168 <target_id>
  40106a:	e8 9b 1e 00 00       	callq  402f0a <gencookie>
  40106f:	89 05 af 44 20 00    	mov    %eax,0x2044af(%rip)        # 605524 <cookie>
  401075:	89 c7                	mov    %eax,%edi
  401077:	e8 8e 1e 00 00       	callq  402f0a <gencookie>
  40107c:	89 05 9e 44 20 00    	mov    %eax,0x20449e(%rip)        # 605520 <authkey>
  401082:	8b 05 e0 40 20 00    	mov    0x2040e0(%rip),%eax        # 605168 <target_id>
  401088:	8d 78 01             	lea    0x1(%rax),%edi
  40108b:	e8 20 fc ff ff       	callq  400cb0 <srandom@plt>
  401090:	e8 4b fd ff ff       	callq  400de0 <random@plt>
  401095:	89 c7                	mov    %eax,%edi
  401097:	e8 03 03 00 00       	callq  40139f <scramble>
  40109c:	89 c3                	mov    %eax,%ebx
  40109e:	85 ed                	test   %ebp,%ebp
  4010a0:	74 18                	je     4010ba <initialize_target+0x7a>
  4010a2:	bf 00 00 00 00       	mov    $0x0,%edi
  4010a7:	e8 24 fd ff ff       	callq  400dd0 <time@plt>
  4010ac:	89 c7                	mov    %eax,%edi
  4010ae:	e8 fd fb ff ff       	callq  400cb0 <srandom@plt>
  4010b3:	e8 28 fd ff ff       	callq  400de0 <random@plt>
  4010b8:	eb 05                	jmp    4010bf <initialize_target+0x7f>
  4010ba:	b8 00 00 00 00       	mov    $0x0,%eax
  4010bf:	01 c3                	add    %eax,%ebx
  4010c1:	0f b7 db             	movzwl %bx,%ebx
  4010c4:	8d 04 dd 00 01 00 00 	lea    0x100(,%rbx,8),%eax
  4010cb:	89 c0                	mov    %eax,%eax
  4010cd:	48 89 05 cc 43 20 00 	mov    %rax,0x2043cc(%rip)        # 6054a0 <buf_offset>
  4010d4:	c6 05 6d 50 20 00 72 	movb   $0x72,0x20506d(%rip)        # 606148 <target_prefix>
  4010db:	83 3d c6 43 20 00 00 	cmpl   $0x0,0x2043c6(%rip)        # 6054a8 <notify>
  4010e2:	0f 84 bb 00 00 00    	je     4011a3 <initialize_target+0x163>
  4010e8:	83 3d 39 44 20 00 00 	cmpl   $0x0,0x204439(%rip)        # 605528 <is_checker>
  4010ef:	0f 85 ae 00 00 00    	jne    4011a3 <initialize_target+0x163>
  4010f5:	be 00 01 00 00       	mov    $0x100,%esi
  4010fa:	48 89 e7             	mov    %rsp,%rdi
  4010fd:	e8 5e fd ff ff       	callq  400e60 <gethostname@plt>
  401102:	85 c0                	test   %eax,%eax
  401104:	74 25                	je     40112b <initialize_target+0xeb>
  401106:	bf 98 30 40 00       	mov    $0x403098,%edi
  40110b:	e8 d0 fb ff ff       	callq  400ce0 <puts@plt>
  401110:	bf 08 00 00 00       	mov    $0x8,%edi
  401115:	e8 56 fd ff ff       	callq  400e70 <exit@plt>
  40111a:	48 89 e6             	mov    %rsp,%rsi
  40111d:	e8 6e fb ff ff       	callq  400c90 <strcasecmp@plt>
  401122:	85 c0                	test   %eax,%eax
  401124:	74 21                	je     401147 <initialize_target+0x107>
  401126:	83 c3 01             	add    $0x1,%ebx
  401129:	eb 05                	jmp    401130 <initialize_target+0xf0>
  40112b:	bb 00 00 00 00       	mov    $0x0,%ebx
  401130:	48 63 c3             	movslq %ebx,%rax
  401133:	48 8b 3c c5 80 51 60 	mov    0x605180(,%rax,8),%rdi
  40113a:	00 
  40113b:	48 85 ff             	test   %rdi,%rdi
  40113e:	75 da                	jne    40111a <initialize_target+0xda>
  401140:	b8 00 00 00 00       	mov    $0x0,%eax
  401145:	eb 05                	jmp    40114c <initialize_target+0x10c>
  401147:	b8 01 00 00 00       	mov    $0x1,%eax
  40114c:	85 c0                	test   %eax,%eax
  40114e:	75 1c                	jne    40116c <initialize_target+0x12c>
  401150:	48 89 e2             	mov    %rsp,%rdx
  401153:	be d0 30 40 00       	mov    $0x4030d0,%esi
  401158:	bf 01 00 00 00       	mov    $0x1,%edi
  40115d:	e8 be fc ff ff       	callq  400e20 <__printf_chk@plt>
  401162:	bf 08 00 00 00       	mov    $0x8,%edi
  401167:	e8 04 fd ff ff       	callq  400e70 <exit@plt>
  40116c:	48 8d bc 24 00 01 00 	lea    0x100(%rsp),%rdi
  401173:	00 
  401174:	e8 fb 1a 00 00       	callq  402c74 <init_driver>
  401179:	85 c0                	test   %eax,%eax
  40117b:	79 26                	jns    4011a3 <initialize_target+0x163>
  40117d:	48 8d 94 24 00 01 00 	lea    0x100(%rsp),%rdx
  401184:	00 
  401185:	be 10 31 40 00       	mov    $0x403110,%esi
  40118a:	bf 01 00 00 00       	mov    $0x1,%edi
  40118f:	b8 00 00 00 00       	mov    $0x0,%eax
  401194:	e8 87 fc ff ff       	callq  400e20 <__printf_chk@plt>
  401199:	bf 08 00 00 00       	mov    $0x8,%edi
  40119e:	e8 cd fc ff ff       	callq  400e70 <exit@plt>
  4011a3:	48 8b 84 24 08 21 00 	mov    0x2108(%rsp),%rax
  4011aa:	00 
  4011ab:	64 48 33 04 25 28 00 	xor    %fs:0x28,%rax
  4011b2:	00 00 
  4011b4:	74 05                	je     4011bb <initialize_target+0x17b>
  4011b6:	e8 45 fb ff ff       	callq  400d00 <__stack_chk_fail@plt>
  4011bb:	48 81 c4 18 21 00 00 	add    $0x2118,%rsp
  4011c2:	5b                   	pop    %rbx
  4011c3:	5d                   	pop    %rbp
  4011c4:	c3                   	retq   

00000000004011c5 <main>:
  4011c5:	41 56                	push   %r14
  4011c7:	41 55                	push   %r13
  4011c9:	41 54                	push   %r12
  4011cb:	55                   	push   %rbp
  4011cc:	53                   	push   %rbx
  4011cd:	41 89 fc             	mov    %edi,%r12d
  4011d0:	48 89 f3             	mov    %rsi,%rbx
  4011d3:	be af 1f 40 00       	mov    $0x401faf,%esi
  4011d8:	bf 0b 00 00 00       	mov    $0xb,%edi
  4011dd:	e8 8e fb ff ff       	callq  400d70 <signal@plt>
  4011e2:	be 61 1f 40 00       	mov    $0x401f61,%esi
  4011e7:	bf 07 00 00 00       	mov    $0x7,%edi
  4011ec:	e8 7f fb ff ff       	callq  400d70 <signal@plt>
  4011f1:	be fd 1f 40 00       	mov    $0x401ffd,%esi
  4011f6:	bf 04 00 00 00       	mov    $0x4,%edi
  4011fb:	e8 70 fb ff ff       	callq  400d70 <signal@plt>
  401200:	83 3d 21 43 20 00 00 	cmpl   $0x0,0x204321(%rip)        # 605528 <is_checker>
  401207:	74 20                	je     401229 <main+0x64>
  401209:	be 4b 20 40 00       	mov    $0x40204b,%esi
  40120e:	bf 0e 00 00 00       	mov    $0xe,%edi
  401213:	e8 58 fb ff ff       	callq  400d70 <signal@plt>
  401218:	bf 05 00 00 00       	mov    $0x5,%edi
  40121d:	e8 0e fb ff ff       	callq  400d30 <alarm@plt>
  401222:	bd da 31 40 00       	mov    $0x4031da,%ebp
  401227:	eb 05                	jmp    40122e <main+0x69>
  401229:	bd d5 31 40 00       	mov    $0x4031d5,%ebp
  40122e:	48 8b 05 8b 42 20 00 	mov    0x20428b(%rip),%rax        # 6054c0 <stdin@@GLIBC_2.2.5>
  401235:	48 89 05 d4 42 20 00 	mov    %rax,0x2042d4(%rip)        # 605510 <infile>
  40123c:	41 bd 00 00 00 00    	mov    $0x0,%r13d
  401242:	41 be 00 00 00 00    	mov    $0x0,%r14d
  401248:	e9 c6 00 00 00       	jmpq   401313 <main+0x14e>
  40124d:	83 e8 61             	sub    $0x61,%eax
  401250:	3c 10                	cmp    $0x10,%al
  401252:	0f 87 9c 00 00 00    	ja     4012f4 <main+0x12f>
  401258:	0f b6 c0             	movzbl %al,%eax
  40125b:	ff 24 c5 20 32 40 00 	jmpq   *0x403220(,%rax,8)
  401262:	48 8b 3b             	mov    (%rbx),%rdi
  401265:	e8 4c fd ff ff       	callq  400fb6 <usage>
  40126a:	be 9d 34 40 00       	mov    $0x40349d,%esi
  40126f:	48 8b 3d 52 42 20 00 	mov    0x204252(%rip),%rdi        # 6054c8 <optarg@@GLIBC_2.2.5>
  401276:	e8 b5 fb ff ff       	callq  400e30 <fopen@plt>
  40127b:	48 89 05 8e 42 20 00 	mov    %rax,0x20428e(%rip)        # 605510 <infile>
  401282:	48 85 c0             	test   %rax,%rax
  401285:	0f 85 88 00 00 00    	jne    401313 <main+0x14e>
  40128b:	48 8b 0d 36 42 20 00 	mov    0x204236(%rip),%rcx        # 6054c8 <optarg@@GLIBC_2.2.5>
  401292:	ba e2 31 40 00       	mov    $0x4031e2,%edx
  401297:	be 01 00 00 00       	mov    $0x1,%esi
  40129c:	48 8b 3d 3d 42 20 00 	mov    0x20423d(%rip),%rdi        # 6054e0 <stderr@@GLIBC_2.2.5>
  4012a3:	e8 e8 fb ff ff       	callq  400e90 <__fprintf_chk@plt>
  4012a8:	b8 01 00 00 00       	mov    $0x1,%eax
  4012ad:	e9 e4 00 00 00       	jmpq   401396 <main+0x1d1>
  4012b2:	ba 10 00 00 00       	mov    $0x10,%edx
  4012b7:	be 00 00 00 00       	mov    $0x0,%esi
  4012bc:	48 8b 3d 05 42 20 00 	mov    0x204205(%rip),%rdi        # 6054c8 <optarg@@GLIBC_2.2.5>
  4012c3:	e8 88 fb ff ff       	callq  400e50 <strtoul@plt>
  4012c8:	41 89 c6             	mov    %eax,%r14d
  4012cb:	eb 46                	jmp    401313 <main+0x14e>
  4012cd:	ba 0a 00 00 00       	mov    $0xa,%edx
  4012d2:	be 00 00 00 00       	mov    $0x0,%esi
  4012d7:	48 8b 3d ea 41 20 00 	mov    0x2041ea(%rip),%rdi        # 6054c8 <optarg@@GLIBC_2.2.5>
  4012de:	e8 cd fa ff ff       	callq  400db0 <strtol@plt>
  4012e3:	41 89 c5             	mov    %eax,%r13d
  4012e6:	eb 2b                	jmp    401313 <main+0x14e>
  4012e8:	c7 05 b6 41 20 00 00 	movl   $0x0,0x2041b6(%rip)        # 6054a8 <notify>
  4012ef:	00 00 00 
  4012f2:	eb 1f                	jmp    401313 <main+0x14e>
  4012f4:	0f be d2             	movsbl %dl,%edx
  4012f7:	be ff 31 40 00       	mov    $0x4031ff,%esi
  4012fc:	bf 01 00 00 00       	mov    $0x1,%edi
  401301:	b8 00 00 00 00       	mov    $0x0,%eax
  401306:	e8 15 fb ff ff       	callq  400e20 <__printf_chk@plt>
  40130b:	48 8b 3b             	mov    (%rbx),%rdi
  40130e:	e8 a3 fc ff ff       	callq  400fb6 <usage>
  401313:	48 89 ea             	mov    %rbp,%rdx
  401316:	48 89 de             	mov    %rbx,%rsi
  401319:	44 89 e7             	mov    %r12d,%edi
  40131c:	e8 1f fb ff ff       	callq  400e40 <getopt@plt>
  401321:	89 c2                	mov    %eax,%edx
  401323:	3c ff                	cmp    $0xff,%al
  401325:	0f 85 22 ff ff ff    	jne    40124d <main+0x88>
  40132b:	be 01 00 00 00       	mov    $0x1,%esi
  401330:	44 89 ef             	mov    %r13d,%edi
  401333:	e8 08 fd ff ff       	callq  401040 <initialize_target>
  401338:	83 3d e9 41 20 00 00 	cmpl   $0x0,0x2041e9(%rip)        # 605528 <is_checker>
  40133f:	74 2a                	je     40136b <main+0x1a6>
  401341:	44 3b 35 d8 41 20 00 	cmp    0x2041d8(%rip),%r14d        # 605520 <authkey>
  401348:	74 21                	je     40136b <main+0x1a6>
  40134a:	44 89 f2             	mov    %r14d,%edx
  40134d:	be 38 31 40 00       	mov    $0x403138,%esi
  401352:	bf 01 00 00 00       	mov    $0x1,%edi
  401357:	b8 00 00 00 00       	mov    $0x0,%eax
  40135c:	e8 bf fa ff ff       	callq  400e20 <__printf_chk@plt>
  401361:	b8 00 00 00 00       	mov    $0x0,%eax
  401366:	e8 92 08 00 00       	callq  401bfd <check_fail>
  40136b:	8b 15 b3 41 20 00    	mov    0x2041b3(%rip),%edx        # 605524 <cookie>
  401371:	be 12 32 40 00       	mov    $0x403212,%esi
  401376:	bf 01 00 00 00       	mov    $0x1,%edi
  40137b:	b8 00 00 00 00       	mov    $0x0,%eax
  401380:	e8 9b fa ff ff       	callq  400e20 <__printf_chk@plt>
  401385:	48 8b 3d 14 41 20 00 	mov    0x204114(%rip),%rdi        # 6054a0 <buf_offset>
  40138c:	e8 0d 0d 00 00       	callq  40209e <launch>
  401391:	b8 00 00 00 00       	mov    $0x0,%eax
  401396:	5b                   	pop    %rbx
  401397:	5d                   	pop    %rbp
  401398:	41 5c                	pop    %r12
  40139a:	41 5d                	pop    %r13
  40139c:	41 5e                	pop    %r14
  40139e:	c3                   	retq   

000000000040139f <scramble>:
  40139f:	48 83 ec 38          	sub    $0x38,%rsp
  4013a3:	64 48 8b 04 25 28 00 	mov    %fs:0x28,%rax
  4013aa:	00 00 
  4013ac:	48 89 44 24 28       	mov    %rax,0x28(%rsp)
  4013b1:	31 c0                	xor    %eax,%eax
  4013b3:	eb 10                	jmp    4013c5 <scramble+0x26>
  4013b5:	69 d0 fa bb 00 00    	imul   $0xbbfa,%eax,%edx
  4013bb:	01 fa                	add    %edi,%edx
  4013bd:	89 c1                	mov    %eax,%ecx
  4013bf:	89 14 8c             	mov    %edx,(%rsp,%rcx,4)
  4013c2:	83 c0 01             	add    $0x1,%eax
  4013c5:	83 f8 09             	cmp    $0x9,%eax
  4013c8:	76 eb                	jbe    4013b5 <scramble+0x16>
  4013ca:	8b 44 24 14          	mov    0x14(%rsp),%eax
  4013ce:	69 c0 10 75 00 00    	imul   $0x7510,%eax,%eax
  4013d4:	89 44 24 14          	mov    %eax,0x14(%rsp)
  4013d8:	8b 44 24 08          	mov    0x8(%rsp),%eax
  4013dc:	69 c0 85 ec 00 00    	imul   $0xec85,%eax,%eax
  4013e2:	89 44 24 08          	mov    %eax,0x8(%rsp)
  4013e6:	8b 44 24 0c          	mov    0xc(%rsp),%eax
  4013ea:	69 c0 36 27 00 00    	imul   $0x2736,%eax,%eax
  4013f0:	89 44 24 0c          	mov    %eax,0xc(%rsp)
  4013f4:	8b 44 24 08          	mov    0x8(%rsp),%eax
  4013f8:	69 c0 f1 d3 00 00    	imul   $0xd3f1,%eax,%eax
  4013fe:	89 44 24 08          	mov    %eax,0x8(%rsp)
  401402:	8b 44 24 20          	mov    0x20(%rsp),%eax
  401406:	69 c0 63 1e 00 00    	imul   $0x1e63,%eax,%eax
  40140c:	89 44 24 20          	mov    %eax,0x20(%rsp)
  401410:	8b 04 24             	mov    (%rsp),%eax
  401413:	69 c0 99 75 00 00    	imul   $0x7599,%eax,%eax
  401419:	89 04 24             	mov    %eax,(%rsp)
  40141c:	8b 04 24             	mov    (%rsp),%eax
  40141f:	69 c0 14 da 00 00    	imul   $0xda14,%eax,%eax
  401425:	89 04 24             	mov    %eax,(%rsp)
  401428:	8b 04 24             	mov    (%rsp),%eax
  40142b:	69 c0 ab 55 00 00    	imul   $0x55ab,%eax,%eax
  401431:	89 04 24             	mov    %eax,(%rsp)
  401434:	8b 44 24 24          	mov    0x24(%rsp),%eax
  401438:	69 c0 61 ed 00 00    	imul   $0xed61,%eax,%eax
  40143e:	89 44 24 24          	mov    %eax,0x24(%rsp)
  401442:	8b 44 24 20          	mov    0x20(%rsp),%eax
  401446:	69 c0 21 6a 00 00    	imul   $0x6a21,%eax,%eax
  40144c:	89 44 24 20          	mov    %eax,0x20(%rsp)
  401450:	8b 44 24 20          	mov    0x20(%rsp),%eax
  401454:	69 c0 4c 4c 00 00    	imul   $0x4c4c,%eax,%eax
  40145a:	89 44 24 20          	mov    %eax,0x20(%rsp)
  40145e:	8b 44 24 24          	mov    0x24(%rsp),%eax
  401462:	69 c0 d7 a7 00 00    	imul   $0xa7d7,%eax,%eax
  401468:	89 44 24 24          	mov    %eax,0x24(%rsp)
  40146c:	8b 44 24 1c          	mov    0x1c(%rsp),%eax
  401470:	69 c0 f2 b7 00 00    	imul   $0xb7f2,%eax,%eax
  401476:	89 44 24 1c          	mov    %eax,0x1c(%rsp)
  40147a:	8b 04 24             	mov    (%rsp),%eax
  40147d:	69 c0 0e e6 00 00    	imul   $0xe60e,%eax,%eax
  401483:	89 04 24             	mov    %eax,(%rsp)
  401486:	8b 44 24 10          	mov    0x10(%rsp),%eax
  40148a:	69 c0 5f f0 00 00    	imul   $0xf05f,%eax,%eax
  401490:	89 44 24 10          	mov    %eax,0x10(%rsp)
  401494:	8b 44 24 14          	mov    0x14(%rsp),%eax
  401498:	69 c0 be a1 00 00    	imul   $0xa1be,%eax,%eax
  40149e:	89 44 24 14          	mov    %eax,0x14(%rsp)
  4014a2:	8b 44 24 0c          	mov    0xc(%rsp),%eax
  4014a6:	69 c0 97 d4 00 00    	imul   $0xd497,%eax,%eax
  4014ac:	89 44 24 0c          	mov    %eax,0xc(%rsp)
  4014b0:	8b 44 24 08          	mov    0x8(%rsp),%eax
  4014b4:	69 c0 e2 f1 00 00    	imul   $0xf1e2,%eax,%eax
  4014ba:	89 44 24 08          	mov    %eax,0x8(%rsp)
  4014be:	8b 44 24 24          	mov    0x24(%rsp),%eax
  4014c2:	69 c0 b4 ba 00 00    	imul   $0xbab4,%eax,%eax
  4014c8:	89 44 24 24          	mov    %eax,0x24(%rsp)
  4014cc:	8b 04 24             	mov    (%rsp),%eax
  4014cf:	69 c0 3a 06 00 00    	imul   $0x63a,%eax,%eax
  4014d5:	89 04 24             	mov    %eax,(%rsp)
  4014d8:	8b 44 24 1c          	mov    0x1c(%rsp),%eax
  4014dc:	69 c0 66 bb 00 00    	imul   $0xbb66,%eax,%eax
  4014e2:	89 44 24 1c          	mov    %eax,0x1c(%rsp)
  4014e6:	8b 44 24 08          	mov    0x8(%rsp),%eax
  4014ea:	69 c0 b8 b9 00 00    	imul   $0xb9b8,%eax,%eax
  4014f0:	89 44 24 08          	mov    %eax,0x8(%rsp)
  4014f4:	8b 44 24 1c          	mov    0x1c(%rsp),%eax
  4014f8:	69 c0 6f 51 00 00    	imul   $0x516f,%eax,%eax
  4014fe:	89 44 24 1c          	mov    %eax,0x1c(%rsp)
  401502:	8b 44 24 18          	mov    0x18(%rsp),%eax
  401506:	69 c0 6d c5 00 00    	imul   $0xc56d,%eax,%eax
  40150c:	89 44 24 18          	mov    %eax,0x18(%rsp)
  401510:	8b 04 24             	mov    (%rsp),%eax
  401513:	69 c0 f4 c1 00 00    	imul   $0xc1f4,%eax,%eax
  401519:	89 04 24             	mov    %eax,(%rsp)
  40151c:	8b 44 24 20          	mov    0x20(%rsp),%eax
  401520:	69 c0 88 f2 00 00    	imul   $0xf288,%eax,%eax
  401526:	89 44 24 20          	mov    %eax,0x20(%rsp)
  40152a:	8b 44 24 14          	mov    0x14(%rsp),%eax
  40152e:	69 c0 a7 d5 00 00    	imul   $0xd5a7,%eax,%eax
  401534:	89 44 24 14          	mov    %eax,0x14(%rsp)
  401538:	8b 44 24 04          	mov    0x4(%rsp),%eax
  40153c:	69 c0 a0 4e 00 00    	imul   $0x4ea0,%eax,%eax
  401542:	89 44 24 04          	mov    %eax,0x4(%rsp)
  401546:	8b 04 24             	mov    (%rsp),%eax
  401549:	69 c0 c4 ce 00 00    	imul   $0xcec4,%eax,%eax
  40154f:	89 04 24             	mov    %eax,(%rsp)
  401552:	8b 44 24 1c          	mov    0x1c(%rsp),%eax
  401556:	69 c0 5e 73 00 00    	imul   $0x735e,%eax,%eax
  40155c:	89 44 24 1c          	mov    %eax,0x1c(%rsp)
  401560:	8b 44 24 10          	mov    0x10(%rsp),%eax
  401564:	69 c0 f6 70 00 00    	imul   $0x70f6,%eax,%eax
  40156a:	89 44 24 10          	mov    %eax,0x10(%rsp)
  40156e:	8b 44 24 18          	mov    0x18(%rsp),%eax
  401572:	69 c0 93 24 00 00    	imul   $0x2493,%eax,%eax
  401578:	89 44 24 18          	mov    %eax,0x18(%rsp)
  40157c:	8b 44 24 1c          	mov    0x1c(%rsp),%eax
  401580:	69 c0 60 a3 00 00    	imul   $0xa360,%eax,%eax
  401586:	89 44 24 1c          	mov    %eax,0x1c(%rsp)
  40158a:	8b 44 24 20          	mov    0x20(%rsp),%eax
  40158e:	69 c0 5c 41 00 00    	imul   $0x415c,%eax,%eax
  401594:	89 44 24 20          	mov    %eax,0x20(%rsp)
  401598:	8b 44 24 10          	mov    0x10(%rsp),%eax
  40159c:	69 c0 48 dc 00 00    	imul   $0xdc48,%eax,%eax
  4015a2:	89 44 24 10          	mov    %eax,0x10(%rsp)
  4015a6:	8b 44 24 20          	mov    0x20(%rsp),%eax
  4015aa:	69 c0 2c 37 00 00    	imul   $0x372c,%eax,%eax
  4015b0:	89 44 24 20          	mov    %eax,0x20(%rsp)
  4015b4:	8b 04 24             	mov    (%rsp),%eax
  4015b7:	69 c0 69 c3 00 00    	imul   $0xc369,%eax,%eax
  4015bd:	89 04 24             	mov    %eax,(%rsp)
  4015c0:	8b 44 24 08          	mov    0x8(%rsp),%eax
  4015c4:	69 c0 29 2d 00 00    	imul   $0x2d29,%eax,%eax
  4015ca:	89 44 24 08          	mov    %eax,0x8(%rsp)
  4015ce:	8b 44 24 10          	mov    0x10(%rsp),%eax
  4015d2:	8d 14 c0             	lea    (%rax,%rax,8),%edx
  4015d5:	8d 04 d5 00 00 00 00 	lea    0x0(,%rdx,8),%eax
  4015dc:	89 44 24 10          	mov    %eax,0x10(%rsp)
  4015e0:	8b 44 24 18          	mov    0x18(%rsp),%eax
  4015e4:	69 c0 a8 53 00 00    	imul   $0x53a8,%eax,%eax
  4015ea:	89 44 24 18          	mov    %eax,0x18(%rsp)
  4015ee:	8b 44 24 1c          	mov    0x1c(%rsp),%eax
  4015f2:	69 c0 24 22 00 00    	imul   $0x2224,%eax,%eax
  4015f8:	89 44 24 1c          	mov    %eax,0x1c(%rsp)
  4015fc:	8b 44 24 1c          	mov    0x1c(%rsp),%eax
  401600:	69 c0 7d d0 00 00    	imul   $0xd07d,%eax,%eax
  401606:	89 44 24 1c          	mov    %eax,0x1c(%rsp)
  40160a:	8b 44 24 1c          	mov    0x1c(%rsp),%eax
  40160e:	69 c0 90 e0 00 00    	imul   $0xe090,%eax,%eax
  401614:	89 44 24 1c          	mov    %eax,0x1c(%rsp)
  401618:	8b 44 24 24          	mov    0x24(%rsp),%eax
  40161c:	69 c0 65 85 00 00    	imul   $0x8565,%eax,%eax
  401622:	89 44 24 24          	mov    %eax,0x24(%rsp)
  401626:	8b 44 24 14          	mov    0x14(%rsp),%eax
  40162a:	69 c0 cb 53 00 00    	imul   $0x53cb,%eax,%eax
  401630:	89 44 24 14          	mov    %eax,0x14(%rsp)
  401634:	8b 44 24 10          	mov    0x10(%rsp),%eax
  401638:	69 c0 78 6e 00 00    	imul   $0x6e78,%eax,%eax
  40163e:	89 44 24 10          	mov    %eax,0x10(%rsp)
  401642:	8b 44 24 0c          	mov    0xc(%rsp),%eax
  401646:	69 c0 df 0d 00 00    	imul   $0xddf,%eax,%eax
  40164c:	89 44 24 0c          	mov    %eax,0xc(%rsp)
  401650:	8b 44 24 04          	mov    0x4(%rsp),%eax
  401654:	69 c0 50 0a 00 00    	imul   $0xa50,%eax,%eax
  40165a:	89 44 24 04          	mov    %eax,0x4(%rsp)
  40165e:	8b 04 24             	mov    (%rsp),%eax
  401661:	69 c0 80 a9 00 00    	imul   $0xa980,%eax,%eax
  401667:	89 04 24             	mov    %eax,(%rsp)
  40166a:	8b 44 24 04          	mov    0x4(%rsp),%eax
  40166e:	69 c0 54 0f 00 00    	imul   $0xf54,%eax,%eax
  401674:	89 44 24 04          	mov    %eax,0x4(%rsp)
  401678:	8b 44 24 08          	mov    0x8(%rsp),%eax
  40167c:	69 c0 42 93 00 00    	imul   $0x9342,%eax,%eax
  401682:	89 44 24 08          	mov    %eax,0x8(%rsp)
  401686:	8b 44 24 24          	mov    0x24(%rsp),%eax
  40168a:	69 c0 77 1d 00 00    	imul   $0x1d77,%eax,%eax
  401690:	89 44 24 24          	mov    %eax,0x24(%rsp)
  401694:	8b 44 24 08          	mov    0x8(%rsp),%eax
  401698:	69 c0 65 37 00 00    	imul   $0x3765,%eax,%eax
  40169e:	89 44 24 08          	mov    %eax,0x8(%rsp)
  4016a2:	8b 44 24 14          	mov    0x14(%rsp),%eax
  4016a6:	69 c0 83 6b 00 00    	imul   $0x6b83,%eax,%eax
  4016ac:	89 44 24 14          	mov    %eax,0x14(%rsp)
  4016b0:	8b 44 24 14          	mov    0x14(%rsp),%eax
  4016b4:	69 c0 36 3d 00 00    	imul   $0x3d36,%eax,%eax
  4016ba:	89 44 24 14          	mov    %eax,0x14(%rsp)
  4016be:	8b 44 24 14          	mov    0x14(%rsp),%eax
  4016c2:	69 c0 e9 f9 00 00    	imul   $0xf9e9,%eax,%eax
  4016c8:	89 44 24 14          	mov    %eax,0x14(%rsp)
  4016cc:	8b 44 24 20          	mov    0x20(%rsp),%eax
  4016d0:	69 c0 5c 05 00 00    	imul   $0x55c,%eax,%eax
  4016d6:	89 44 24 20          	mov    %eax,0x20(%rsp)
  4016da:	8b 44 24 24          	mov    0x24(%rsp),%eax
  4016de:	69 c0 26 57 00 00    	imul   $0x5726,%eax,%eax
  4016e4:	89 44 24 24          	mov    %eax,0x24(%rsp)
  4016e8:	8b 44 24 14          	mov    0x14(%rsp),%eax
  4016ec:	69 c0 83 e9 00 00    	imul   $0xe983,%eax,%eax
  4016f2:	89 44 24 14          	mov    %eax,0x14(%rsp)
  4016f6:	8b 44 24 1c          	mov    0x1c(%rsp),%eax
  4016fa:	69 c0 42 95 00 00    	imul   $0x9542,%eax,%eax
  401700:	89 44 24 1c          	mov    %eax,0x1c(%rsp)
  401704:	8b 44 24 20          	mov    0x20(%rsp),%eax
  401708:	69 c0 4e d5 00 00    	imul   $0xd54e,%eax,%eax
  40170e:	89 44 24 20          	mov    %eax,0x20(%rsp)
  401712:	8b 44 24 18          	mov    0x18(%rsp),%eax
  401716:	69 c0 11 02 00 00    	imul   $0x211,%eax,%eax
  40171c:	89 44 24 18          	mov    %eax,0x18(%rsp)
  401720:	8b 44 24 14          	mov    0x14(%rsp),%eax
  401724:	69 c0 c6 96 00 00    	imul   $0x96c6,%eax,%eax
  40172a:	89 44 24 14          	mov    %eax,0x14(%rsp)
  40172e:	8b 44 24 18          	mov    0x18(%rsp),%eax
  401732:	69 c0 6d 94 00 00    	imul   $0x946d,%eax,%eax
  401738:	89 44 24 18          	mov    %eax,0x18(%rsp)
  40173c:	8b 44 24 24          	mov    0x24(%rsp),%eax
  401740:	69 c0 0d 58 00 00    	imul   $0x580d,%eax,%eax
  401746:	89 44 24 24          	mov    %eax,0x24(%rsp)
  40174a:	8b 44 24 04          	mov    0x4(%rsp),%eax
  40174e:	69 c0 0f c6 00 00    	imul   $0xc60f,%eax,%eax
  401754:	89 44 24 04          	mov    %eax,0x4(%rsp)
  401758:	8b 44 24 1c          	mov    0x1c(%rsp),%eax
  40175c:	69 c0 42 ea 00 00    	imul   $0xea42,%eax,%eax
  401762:	89 44 24 1c          	mov    %eax,0x1c(%rsp)
  401766:	8b 44 24 24          	mov    0x24(%rsp),%eax
  40176a:	69 c0 fa 41 00 00    	imul   $0x41fa,%eax,%eax
  401770:	89 44 24 24          	mov    %eax,0x24(%rsp)
  401774:	8b 44 24 1c          	mov    0x1c(%rsp),%eax
  401778:	69 c0 27 2e 00 00    	imul   $0x2e27,%eax,%eax
  40177e:	89 44 24 1c          	mov    %eax,0x1c(%rsp)
  401782:	8b 04 24             	mov    (%rsp),%eax
  401785:	69 c0 54 59 00 00    	imul   $0x5954,%eax,%eax
  40178b:	89 04 24             	mov    %eax,(%rsp)
  40178e:	8b 44 24 14          	mov    0x14(%rsp),%eax
  401792:	69 c0 a8 6c 00 00    	imul   $0x6ca8,%eax,%eax
  401798:	89 44 24 14          	mov    %eax,0x14(%rsp)
  40179c:	8b 44 24 1c          	mov    0x1c(%rsp),%eax
  4017a0:	69 c0 b9 ca 00 00    	imul   $0xcab9,%eax,%eax
  4017a6:	89 44 24 1c          	mov    %eax,0x1c(%rsp)
  4017aa:	8b 44 24 04          	mov    0x4(%rsp),%eax
  4017ae:	69 c0 a4 1d 00 00    	imul   $0x1da4,%eax,%eax
  4017b4:	89 44 24 04          	mov    %eax,0x4(%rsp)
  4017b8:	8b 44 24 14          	mov    0x14(%rsp),%eax
  4017bc:	69 c0 f2 57 00 00    	imul   $0x57f2,%eax,%eax
  4017c2:	89 44 24 14          	mov    %eax,0x14(%rsp)
  4017c6:	8b 44 24 18          	mov    0x18(%rsp),%eax
  4017ca:	69 c0 6b fe 00 00    	imul   $0xfe6b,%eax,%eax
  4017d0:	89 44 24 18          	mov    %eax,0x18(%rsp)
  4017d4:	8b 44 24 04          	mov    0x4(%rsp),%eax
  4017d8:	69 c0 76 44 00 00    	imul   $0x4476,%eax,%eax
  4017de:	89 44 24 04          	mov    %eax,0x4(%rsp)
  4017e2:	8b 44 24 1c          	mov    0x1c(%rsp),%eax
  4017e6:	69 c0 ee f0 00 00    	imul   $0xf0ee,%eax,%eax
  4017ec:	89 44 24 1c          	mov    %eax,0x1c(%rsp)
  4017f0:	8b 44 24 20          	mov    0x20(%rsp),%eax
  4017f4:	69 c0 e7 b6 00 00    	imul   $0xb6e7,%eax,%eax
  4017fa:	89 44 24 20          	mov    %eax,0x20(%rsp)
  4017fe:	8b 44 24 1c          	mov    0x1c(%rsp),%eax
  401802:	69 c0 e8 52 00 00    	imul   $0x52e8,%eax,%eax
  401808:	89 44 24 1c          	mov    %eax,0x1c(%rsp)
  40180c:	8b 44 24 24          	mov    0x24(%rsp),%eax
  401810:	69 c0 fb c7 00 00    	imul   $0xc7fb,%eax,%eax
  401816:	89 44 24 24          	mov    %eax,0x24(%rsp)
  40181a:	8b 44 24 10          	mov    0x10(%rsp),%eax
  40181e:	69 c0 16 ef 00 00    	imul   $0xef16,%eax,%eax
  401824:	89 44 24 10          	mov    %eax,0x10(%rsp)
  401828:	8b 44 24 08          	mov    0x8(%rsp),%eax
  40182c:	69 c0 44 96 00 00    	imul   $0x9644,%eax,%eax
  401832:	89 44 24 08          	mov    %eax,0x8(%rsp)
  401836:	8b 44 24 18          	mov    0x18(%rsp),%eax
  40183a:	69 c0 91 71 00 00    	imul   $0x7191,%eax,%eax
  401840:	89 44 24 18          	mov    %eax,0x18(%rsp)
  401844:	8b 44 24 14          	mov    0x14(%rsp),%eax
  401848:	69 c0 ff fa 00 00    	imul   $0xfaff,%eax,%eax
  40184e:	89 44 24 14          	mov    %eax,0x14(%rsp)
  401852:	ba 00 00 00 00       	mov    $0x0,%edx
  401857:	b8 00 00 00 00       	mov    $0x0,%eax
  40185c:	eb 0a                	jmp    401868 <scramble+0x4c9>
  40185e:	89 d1                	mov    %edx,%ecx
  401860:	8b 0c 8c             	mov    (%rsp,%rcx,4),%ecx
  401863:	01 c8                	add    %ecx,%eax
  401865:	83 c2 01             	add    $0x1,%edx
  401868:	83 fa 09             	cmp    $0x9,%edx
  40186b:	76 f1                	jbe    40185e <scramble+0x4bf>
  40186d:	48 8b 74 24 28       	mov    0x28(%rsp),%rsi
  401872:	64 48 33 34 25 28 00 	xor    %fs:0x28,%rsi
  401879:	00 00 
  40187b:	74 05                	je     401882 <scramble+0x4e3>
  40187d:	e8 7e f4 ff ff       	callq  400d00 <__stack_chk_fail@plt>
  401882:	48 83 c4 38          	add    $0x38,%rsp
  401886:	c3                   	retq   

0000000000401887 <getbuf>:
  401887:	48 83 ec 38          	sub    $0x38,%rsp
  40188b:	48 89 e7             	mov    %rsp,%rdi
  40188e:	e8 9f 03 00 00       	callq  401c32 <Gets>
  401893:	b8 01 00 00 00       	mov    $0x1,%eax
  401898:	48 83 c4 38          	add    $0x38,%rsp
  40189c:	c3                   	retq   

000000000040189d <touch1>:
  40189d:	48 83 ec 08          	sub    $0x8,%rsp
  4018a1:	c7 05 71 3c 20 00 01 	movl   $0x1,0x203c71(%rip)        # 60551c <vlevel>
  4018a8:	00 00 00 
  4018ab:	bf f3 32 40 00       	mov    $0x4032f3,%edi
  4018b0:	e8 2b f4 ff ff       	callq  400ce0 <puts@plt>
  4018b5:	bf 01 00 00 00       	mov    $0x1,%edi
  4018ba:	e8 b8 05 00 00       	callq  401e77 <validate>
  4018bf:	bf 00 00 00 00       	mov    $0x0,%edi
  4018c4:	e8 a7 f5 ff ff       	callq  400e70 <exit@plt>

00000000004018c9 <touch2>:
  4018c9:	48 83 ec 08          	sub    $0x8,%rsp
  4018cd:	89 fa                	mov    %edi,%edx
  4018cf:	c7 05 43 3c 20 00 02 	movl   $0x2,0x203c43(%rip)        # 60551c <vlevel>
  4018d6:	00 00 00 
  4018d9:	39 3d 45 3c 20 00    	cmp    %edi,0x203c45(%rip)        # 605524 <cookie>
  4018df:	75 20                	jne    401901 <touch2+0x38>
  4018e1:	be 18 33 40 00       	mov    $0x403318,%esi
  4018e6:	bf 01 00 00 00       	mov    $0x1,%edi
  4018eb:	b8 00 00 00 00       	mov    $0x0,%eax
  4018f0:	e8 2b f5 ff ff       	callq  400e20 <__printf_chk@plt>
  4018f5:	bf 02 00 00 00       	mov    $0x2,%edi
  4018fa:	e8 78 05 00 00       	callq  401e77 <validate>
  4018ff:	eb 1e                	jmp    40191f <touch2+0x56>
  401901:	be 40 33 40 00       	mov    $0x403340,%esi
  401906:	bf 01 00 00 00       	mov    $0x1,%edi
  40190b:	b8 00 00 00 00       	mov    $0x0,%eax
  401910:	e8 0b f5 ff ff       	callq  400e20 <__printf_chk@plt>
  401915:	bf 02 00 00 00       	mov    $0x2,%edi
  40191a:	e8 1a 06 00 00       	callq  401f39 <fail>
  40191f:	bf 00 00 00 00       	mov    $0x0,%edi
  401924:	e8 47 f5 ff ff       	callq  400e70 <exit@plt>

0000000000401929 <hexmatch>:
  401929:	41 54                	push   %r12
  40192b:	55                   	push   %rbp
  40192c:	53                   	push   %rbx
  40192d:	48 83 c4 80          	add    $0xffffffffffffff80,%rsp
  401931:	89 fd                	mov    %edi,%ebp
  401933:	48 89 f3             	mov    %rsi,%rbx
  401936:	64 48 8b 04 25 28 00 	mov    %fs:0x28,%rax
  40193d:	00 00 
  40193f:	48 89 44 24 78       	mov    %rax,0x78(%rsp)
  401944:	31 c0                	xor    %eax,%eax
  401946:	e8 95 f4 ff ff       	callq  400de0 <random@plt>
  40194b:	48 89 c1             	mov    %rax,%rcx
  40194e:	48 ba 0b d7 a3 70 3d 	movabs $0xa3d70a3d70a3d70b,%rdx
  401955:	0a d7 a3 
  401958:	48 f7 ea             	imul   %rdx
  40195b:	48 01 ca             	add    %rcx,%rdx
  40195e:	48 c1 fa 06          	sar    $0x6,%rdx
  401962:	48 89 c8             	mov    %rcx,%rax
  401965:	48 c1 f8 3f          	sar    $0x3f,%rax
  401969:	48 29 c2             	sub    %rax,%rdx
  40196c:	48 8d 04 92          	lea    (%rdx,%rdx,4),%rax
  401970:	48 8d 14 80          	lea    (%rax,%rax,4),%rdx
  401974:	48 8d 04 95 00 00 00 	lea    0x0(,%rdx,4),%rax
  40197b:	00 
  40197c:	48 29 c1             	sub    %rax,%rcx
  40197f:	4c 8d 24 0c          	lea    (%rsp,%rcx,1),%r12
  401983:	41 89 e8             	mov    %ebp,%r8d
  401986:	b9 10 33 40 00       	mov    $0x403310,%ecx
  40198b:	48 c7 c2 ff ff ff ff 	mov    $0xffffffffffffffff,%rdx
  401992:	be 01 00 00 00       	mov    $0x1,%esi
  401997:	4c 89 e7             	mov    %r12,%rdi
  40199a:	b8 00 00 00 00       	mov    $0x0,%eax
  40199f:	e8 fc f4 ff ff       	callq  400ea0 <__sprintf_chk@plt>
  4019a4:	ba 09 00 00 00       	mov    $0x9,%edx
  4019a9:	4c 89 e6             	mov    %r12,%rsi
  4019ac:	48 89 df             	mov    %rbx,%rdi
  4019af:	e8 0c f3 ff ff       	callq  400cc0 <strncmp@plt>
  4019b4:	85 c0                	test   %eax,%eax
  4019b6:	0f 94 c0             	sete   %al
  4019b9:	48 8b 5c 24 78       	mov    0x78(%rsp),%rbx
  4019be:	64 48 33 1c 25 28 00 	xor    %fs:0x28,%rbx
  4019c5:	00 00 
  4019c7:	74 05                	je     4019ce <hexmatch+0xa5>
  4019c9:	e8 32 f3 ff ff       	callq  400d00 <__stack_chk_fail@plt>
  4019ce:	0f b6 c0             	movzbl %al,%eax
  4019d1:	48 83 ec 80          	sub    $0xffffffffffffff80,%rsp
  4019d5:	5b                   	pop    %rbx
  4019d6:	5d                   	pop    %rbp
  4019d7:	41 5c                	pop    %r12
  4019d9:	c3                   	retq   

00000000004019da <touch3>:
  4019da:	53                   	push   %rbx
  4019db:	48 89 fb             	mov    %rdi,%rbx
  4019de:	c7 05 34 3b 20 00 03 	movl   $0x3,0x203b34(%rip)        # 60551c <vlevel>
  4019e5:	00 00 00 
  4019e8:	48 89 fe             	mov    %rdi,%rsi
  4019eb:	8b 3d 33 3b 20 00    	mov    0x203b33(%rip),%edi        # 605524 <cookie>
  4019f1:	e8 33 ff ff ff       	callq  401929 <hexmatch>
  4019f6:	85 c0                	test   %eax,%eax
  4019f8:	74 23                	je     401a1d <touch3+0x43>
  4019fa:	48 89 da             	mov    %rbx,%rdx
  4019fd:	be 68 33 40 00       	mov    $0x403368,%esi
  401a02:	bf 01 00 00 00       	mov    $0x1,%edi
  401a07:	b8 00 00 00 00       	mov    $0x0,%eax
  401a0c:	e8 0f f4 ff ff       	callq  400e20 <__printf_chk@plt>
  401a11:	bf 03 00 00 00       	mov    $0x3,%edi
  401a16:	e8 5c 04 00 00       	callq  401e77 <validate>
  401a1b:	eb 21                	jmp    401a3e <touch3+0x64>
  401a1d:	48 89 da             	mov    %rbx,%rdx
  401a20:	be 90 33 40 00       	mov    $0x403390,%esi
  401a25:	bf 01 00 00 00       	mov    $0x1,%edi
  401a2a:	b8 00 00 00 00       	mov    $0x0,%eax
  401a2f:	e8 ec f3 ff ff       	callq  400e20 <__printf_chk@plt>
  401a34:	bf 03 00 00 00       	mov    $0x3,%edi
  401a39:	e8 fb 04 00 00       	callq  401f39 <fail>
  401a3e:	bf 00 00 00 00       	mov    $0x0,%edi
  401a43:	e8 28 f4 ff ff       	callq  400e70 <exit@plt>

0000000000401a48 <test>:
  401a48:	48 83 ec 08          	sub    $0x8,%rsp
  401a4c:	b8 00 00 00 00       	mov    $0x0,%eax
  401a51:	e8 31 fe ff ff       	callq  401887 <getbuf>
  401a56:	89 c2                	mov    %eax,%edx
  401a58:	be b8 33 40 00       	mov    $0x4033b8,%esi
  401a5d:	bf 01 00 00 00       	mov    $0x1,%edi
  401a62:	b8 00 00 00 00       	mov    $0x0,%eax
  401a67:	e8 b4 f3 ff ff       	callq  400e20 <__printf_chk@plt>
  401a6c:	48 83 c4 08          	add    $0x8,%rsp
  401a70:	c3                   	retq   

0000000000401a71 <start_farm>:
  401a71:	b8 01 00 00 00       	mov    $0x1,%eax
  401a76:	c3                   	retq   

0000000000401a77 <getval_399>:
  401a77:	b8 48 89 c7 c3       	mov    $0xc3c78948,%eax
  401a7c:	c3                   	retq   

0000000000401a7d <setval_292>:
  401a7d:	c7 07 51 06 58 92    	movl   $0x92580651,(%rdi)
  401a83:	c3                   	retq   

0000000000401a84 <getval_344>:
  401a84:	b8 1f 58 c3 f5       	mov    $0xf5c3581f,%eax
  401a89:	c3                   	retq   

0000000000401a8a <getval_380>:
  401a8a:	b8 c8 89 c7 c3       	mov    $0xc3c789c8,%eax
  401a8f:	c3                   	retq   

0000000000401a90 <addval_439>:
  401a90:	8d 87 aa 58 91 90    	lea    -0x6f6ea756(%rdi),%eax
  401a96:	c3                   	retq   

0000000000401a97 <setval_258>:
  401a97:	c7 07 48 89 c7 91    	movl   $0x91c78948,(%rdi)
  401a9d:	c3                   	retq   

0000000000401a9e <getval_115>:
  401a9e:	b8 58 90 90 90       	mov    $0x90909058,%eax
  401aa3:	c3                   	retq   

0000000000401aa4 <getval_120>:
  401aa4:	b8 48 89 c7 c3       	mov    $0xc3c78948,%eax
  401aa9:	c3                   	retq   

0000000000401aaa <mid_farm>:
  401aaa:	b8 01 00 00 00       	mov    $0x1,%eax
  401aaf:	c3                   	retq   

0000000000401ab0 <add_xy>:
  401ab0:	48 8d 04 37          	lea    (%rdi,%rsi,1),%rax
  401ab4:	c3                   	retq   

0000000000401ab5 <setval_493>:
  401ab5:	c7 07 89 d1 90 c1    	movl   $0xc190d189,(%rdi)
  401abb:	c3                   	retq   

0000000000401abc <setval_127>:
  401abc:	c7 07 89 ce 38 d2    	movl   $0xd238ce89,(%rdi)
  401ac2:	c3                   	retq   

0000000000401ac3 <addval_187>:
  401ac3:	8d 87 48 89 e0 c7    	lea    -0x381f76b8(%rdi),%eax
  401ac9:	c3                   	retq   

0000000000401aca <addval_320>:
  401aca:	8d 87 92 89 c2 c7    	lea    -0x383d766e(%rdi),%eax
  401ad0:	c3                   	retq   

0000000000401ad1 <addval_347>:
  401ad1:	8d 87 81 c2 90 c3    	lea    -0x3c6f3d7f(%rdi),%eax
  401ad7:	c3                   	retq   

0000000000401ad8 <addval_300>:
  401ad8:	8d 87 a9 ce 90 90    	lea    -0x6f6f3157(%rdi),%eax
  401ade:	c3                   	retq   

0000000000401adf <addval_118>:
  401adf:	8d 87 c9 c2 38 db    	lea    -0x24c73d37(%rdi),%eax
  401ae5:	c3                   	retq   

0000000000401ae6 <addval_324>:
  401ae6:	8d 87 8d c2 90 c3    	lea    -0x3c6f3d73(%rdi),%eax
  401aec:	c3                   	retq   

0000000000401aed <getval_414>:
  401aed:	b8 89 ce 90 c3       	mov    $0xc390ce89,%eax
  401af2:	c3                   	retq   

0000000000401af3 <getval_466>:
  401af3:	b8 89 c2 38 d2       	mov    $0xd238c289,%eax
  401af8:	c3                   	retq   

0000000000401af9 <setval_418>:
  401af9:	c7 07 48 89 e0 c1    	movl   $0xc1e08948,(%rdi)
  401aff:	c3                   	retq   

0000000000401b00 <getval_312>:
  401b00:	b8 89 c2 90 c3       	mov    $0xc390c289,%eax
  401b05:	c3                   	retq   

0000000000401b06 <addval_425>:
  401b06:	8d 87 89 c2 94 90    	lea    -0x6f6b3d77(%rdi),%eax
  401b0c:	c3                   	retq   

0000000000401b0d <setval_237>:
  401b0d:	c7 07 8f 89 d1 94    	movl   $0x94d1898f,(%rdi)
  401b13:	c3                   	retq   

0000000000401b14 <setval_357>:
  401b14:	c7 07 89 c2 94 d2    	movl   $0xd294c289,(%rdi)
  401b1a:	c3                   	retq   

0000000000401b1b <setval_471>:
  401b1b:	c7 07 c9 ce 08 db    	movl   $0xdb08cec9,(%rdi)
  401b21:	c3                   	retq   

0000000000401b22 <setval_392>:
  401b22:	c7 07 89 d1 90 90    	movl   $0x9090d189,(%rdi)
  401b28:	c3                   	retq   

0000000000401b29 <getval_139>:
  401b29:	b8 6a 48 89 e0       	mov    $0xe089486a,%eax
  401b2e:	c3                   	retq   

0000000000401b2f <getval_156>:
  401b2f:	b8 89 d1 c4 c0       	mov    $0xc0c4d189,%eax
  401b34:	c3                   	retq   

0000000000401b35 <addval_238>:
  401b35:	8d 87 89 d1 38 c0    	lea    -0x3fc72e77(%rdi),%eax
  401b3b:	c3                   	retq   

0000000000401b3c <getval_174>:
  401b3c:	b8 c9 d1 90 90       	mov    $0x9090d1c9,%eax
  401b41:	c3                   	retq   

0000000000401b42 <getval_202>:
  401b42:	b8 48 89 e0 92       	mov    $0x92e08948,%eax
  401b47:	c3                   	retq   

0000000000401b48 <addval_129>:
  401b48:	8d 87 89 ce c7 72    	lea    0x72c7ce89(%rdi),%eax
  401b4e:	c3                   	retq   

0000000000401b4f <addval_435>:
  401b4f:	8d 87 c9 d1 90 90    	lea    -0x6f6f2e37(%rdi),%eax
  401b55:	c3                   	retq   

0000000000401b56 <setval_193>:
  401b56:	c7 07 89 ce 18 db    	movl   $0xdb18ce89,(%rdi)
  401b5c:	c3                   	retq   

0000000000401b5d <setval_143>:
  401b5d:	c7 07 48 89 e0 94    	movl   $0x94e08948,(%rdi)
  401b63:	c3                   	retq   

0000000000401b64 <setval_230>:
  401b64:	c7 07 89 d1 94 db    	movl   $0xdb94d189,(%rdi)
  401b6a:	c3                   	retq   

0000000000401b6b <getval_389>:
  401b6b:	b8 58 89 e0 c3       	mov    $0xc3e08958,%eax
  401b70:	c3                   	retq   

0000000000401b71 <getval_103>:
  401b71:	b8 8b ce 90 90       	mov    $0x9090ce8b,%eax
  401b76:	c3                   	retq   

0000000000401b77 <setval_360>:
  401b77:	c7 07 48 89 e0 94    	movl   $0x94e08948,(%rdi)
  401b7d:	c3                   	retq   

0000000000401b7e <setval_247>:
  401b7e:	c7 07 8d ce 38 c9    	movl   $0xc938ce8d,(%rdi)
  401b84:	c3                   	retq   

0000000000401b85 <addval_138>:
  401b85:	8d 87 48 89 e0 c3    	lea    -0x3c1f76b8(%rdi),%eax
  401b8b:	c3                   	retq   

0000000000401b8c <end_farm>:
  401b8c:	b8 01 00 00 00       	mov    $0x1,%eax
  401b91:	c3                   	retq   

0000000000401b92 <save_char>:
  401b92:	8b 05 ac 45 20 00    	mov    0x2045ac(%rip),%eax        # 606144 <gets_cnt>
  401b98:	3d ff 03 00 00       	cmp    $0x3ff,%eax
  401b9d:	7f 49                	jg     401be8 <save_char+0x56>
  401b9f:	8d 14 40             	lea    (%rax,%rax,2),%edx
  401ba2:	89 f9                	mov    %edi,%ecx
  401ba4:	c0 e9 04             	shr    $0x4,%cl
  401ba7:	83 e1 0f             	and    $0xf,%ecx
  401baa:	0f b6 b1 e0 36 40 00 	movzbl 0x4036e0(%rcx),%esi
  401bb1:	48 63 ca             	movslq %edx,%rcx
  401bb4:	40 88 b1 40 55 60 00 	mov    %sil,0x605540(%rcx)
  401bbb:	8d 4a 01             	lea    0x1(%rdx),%ecx
  401bbe:	83 e7 0f             	and    $0xf,%edi
  401bc1:	0f b6 b7 e0 36 40 00 	movzbl 0x4036e0(%rdi),%esi
  401bc8:	48 63 c9             	movslq %ecx,%rcx
  401bcb:	40 88 b1 40 55 60 00 	mov    %sil,0x605540(%rcx)
  401bd2:	83 c2 02             	add    $0x2,%edx
  401bd5:	48 63 d2             	movslq %edx,%rdx
  401bd8:	c6 82 40 55 60 00 20 	movb   $0x20,0x605540(%rdx)
  401bdf:	83 c0 01             	add    $0x1,%eax
  401be2:	89 05 5c 45 20 00    	mov    %eax,0x20455c(%rip)        # 606144 <gets_cnt>
  401be8:	f3 c3                	repz retq 

0000000000401bea <save_term>:
  401bea:	8b 05 54 45 20 00    	mov    0x204554(%rip),%eax        # 606144 <gets_cnt>
  401bf0:	8d 04 40             	lea    (%rax,%rax,2),%eax
  401bf3:	48 98                	cltq   
  401bf5:	c6 80 40 55 60 00 00 	movb   $0x0,0x605540(%rax)
  401bfc:	c3                   	retq   

0000000000401bfd <check_fail>:
  401bfd:	48 83 ec 08          	sub    $0x8,%rsp
  401c01:	0f be 15 40 45 20 00 	movsbl 0x204540(%rip),%edx        # 606148 <target_prefix>
  401c08:	41 b8 40 55 60 00    	mov    $0x605540,%r8d
  401c0e:	8b 0d 04 39 20 00    	mov    0x203904(%rip),%ecx        # 605518 <check_level>
  401c14:	be db 33 40 00       	mov    $0x4033db,%esi
  401c19:	bf 01 00 00 00       	mov    $0x1,%edi
  401c1e:	b8 00 00 00 00       	mov    $0x0,%eax
  401c23:	e8 f8 f1 ff ff       	callq  400e20 <__printf_chk@plt>
  401c28:	bf 01 00 00 00       	mov    $0x1,%edi
  401c2d:	e8 3e f2 ff ff       	callq  400e70 <exit@plt>

0000000000401c32 <Gets>:
  401c32:	41 54                	push   %r12
  401c34:	55                   	push   %rbp
  401c35:	53                   	push   %rbx
  401c36:	49 89 fc             	mov    %rdi,%r12
  401c39:	c7 05 01 45 20 00 00 	movl   $0x0,0x204501(%rip)        # 606144 <gets_cnt>
  401c40:	00 00 00 
  401c43:	48 89 fb             	mov    %rdi,%rbx
  401c46:	eb 11                	jmp    401c59 <Gets+0x27>
  401c48:	48 8d 6b 01          	lea    0x1(%rbx),%rbp
  401c4c:	88 03                	mov    %al,(%rbx)
  401c4e:	0f b6 f8             	movzbl %al,%edi
  401c51:	e8 3c ff ff ff       	callq  401b92 <save_char>
  401c56:	48 89 eb             	mov    %rbp,%rbx
  401c59:	48 8b 3d b0 38 20 00 	mov    0x2038b0(%rip),%rdi        # 605510 <infile>
  401c60:	e8 8b f1 ff ff       	callq  400df0 <_IO_getc@plt>
  401c65:	83 f8 ff             	cmp    $0xffffffff,%eax
  401c68:	74 05                	je     401c6f <Gets+0x3d>
  401c6a:	83 f8 0a             	cmp    $0xa,%eax
  401c6d:	75 d9                	jne    401c48 <Gets+0x16>
  401c6f:	c6 03 00             	movb   $0x0,(%rbx)
  401c72:	b8 00 00 00 00       	mov    $0x0,%eax
  401c77:	e8 6e ff ff ff       	callq  401bea <save_term>
  401c7c:	4c 89 e0             	mov    %r12,%rax
  401c7f:	5b                   	pop    %rbx
  401c80:	5d                   	pop    %rbp
  401c81:	41 5c                	pop    %r12
  401c83:	c3                   	retq   

0000000000401c84 <notify_server>:
  401c84:	53                   	push   %rbx
  401c85:	48 81 ec 10 40 00 00 	sub    $0x4010,%rsp
  401c8c:	64 48 8b 04 25 28 00 	mov    %fs:0x28,%rax
  401c93:	00 00 
  401c95:	48 89 84 24 08 40 00 	mov    %rax,0x4008(%rsp)
  401c9c:	00 
  401c9d:	31 c0                	xor    %eax,%eax
  401c9f:	83 3d 82 38 20 00 00 	cmpl   $0x0,0x203882(%rip)        # 605528 <is_checker>
  401ca6:	0f 85 aa 01 00 00    	jne    401e56 <notify_server+0x1d2>
  401cac:	89 fb                	mov    %edi,%ebx
  401cae:	8b 05 90 44 20 00    	mov    0x204490(%rip),%eax        # 606144 <gets_cnt>
  401cb4:	83 c0 64             	add    $0x64,%eax
  401cb7:	3d 00 20 00 00       	cmp    $0x2000,%eax
  401cbc:	7e 1e                	jle    401cdc <notify_server+0x58>
  401cbe:	be 10 35 40 00       	mov    $0x403510,%esi
  401cc3:	bf 01 00 00 00       	mov    $0x1,%edi
  401cc8:	b8 00 00 00 00       	mov    $0x0,%eax
  401ccd:	e8 4e f1 ff ff       	callq  400e20 <__printf_chk@plt>
  401cd2:	bf 01 00 00 00       	mov    $0x1,%edi
  401cd7:	e8 94 f1 ff ff       	callq  400e70 <exit@plt>
  401cdc:	0f be 05 65 44 20 00 	movsbl 0x204465(%rip),%eax        # 606148 <target_prefix>
  401ce3:	83 3d be 37 20 00 00 	cmpl   $0x0,0x2037be(%rip)        # 6054a8 <notify>
  401cea:	74 08                	je     401cf4 <notify_server+0x70>
  401cec:	8b 15 2e 38 20 00    	mov    0x20382e(%rip),%edx        # 605520 <authkey>
  401cf2:	eb 05                	jmp    401cf9 <notify_server+0x75>
  401cf4:	ba ff ff ff ff       	mov    $0xffffffff,%edx
  401cf9:	85 db                	test   %ebx,%ebx
  401cfb:	74 08                	je     401d05 <notify_server+0x81>
  401cfd:	41 b9 f1 33 40 00    	mov    $0x4033f1,%r9d
  401d03:	eb 06                	jmp    401d0b <notify_server+0x87>
  401d05:	41 b9 f6 33 40 00    	mov    $0x4033f6,%r9d
  401d0b:	68 40 55 60 00       	pushq  $0x605540
  401d10:	56                   	push   %rsi
  401d11:	50                   	push   %rax
  401d12:	52                   	push   %rdx
  401d13:	44 8b 05 4e 34 20 00 	mov    0x20344e(%rip),%r8d        # 605168 <target_id>
  401d1a:	b9 fb 33 40 00       	mov    $0x4033fb,%ecx
  401d1f:	ba 00 20 00 00       	mov    $0x2000,%edx
  401d24:	be 01 00 00 00       	mov    $0x1,%esi
  401d29:	48 8d 7c 24 20       	lea    0x20(%rsp),%rdi
  401d2e:	b8 00 00 00 00       	mov    $0x0,%eax
  401d33:	e8 68 f1 ff ff       	callq  400ea0 <__sprintf_chk@plt>
  401d38:	48 83 c4 20          	add    $0x20,%rsp
  401d3c:	83 3d 65 37 20 00 00 	cmpl   $0x0,0x203765(%rip)        # 6054a8 <notify>
  401d43:	0f 84 81 00 00 00    	je     401dca <notify_server+0x146>
  401d49:	85 db                	test   %ebx,%ebx
  401d4b:	74 6e                	je     401dbb <notify_server+0x137>
  401d4d:	4c 8d 8c 24 00 20 00 	lea    0x2000(%rsp),%r9
  401d54:	00 
  401d55:	41 b8 00 00 00 00    	mov    $0x0,%r8d
  401d5b:	48 89 e1             	mov    %rsp,%rcx
  401d5e:	48 8b 15 0b 34 20 00 	mov    0x20340b(%rip),%rdx        # 605170 <lab>
  401d65:	48 8b 35 0c 34 20 00 	mov    0x20340c(%rip),%rsi        # 605178 <course>
  401d6c:	48 8b 3d ed 33 20 00 	mov    0x2033ed(%rip),%rdi        # 605160 <user_id>
  401d73:	e8 ef 10 00 00       	callq  402e67 <driver_post>
  401d78:	85 c0                	test   %eax,%eax
  401d7a:	79 26                	jns    401da2 <notify_server+0x11e>
  401d7c:	48 8d 94 24 00 20 00 	lea    0x2000(%rsp),%rdx
  401d83:	00 
  401d84:	be 17 34 40 00       	mov    $0x403417,%esi
  401d89:	bf 01 00 00 00       	mov    $0x1,%edi
  401d8e:	b8 00 00 00 00       	mov    $0x0,%eax
  401d93:	e8 88 f0 ff ff       	callq  400e20 <__printf_chk@plt>
  401d98:	bf 01 00 00 00       	mov    $0x1,%edi
  401d9d:	e8 ce f0 ff ff       	callq  400e70 <exit@plt>
  401da2:	bf 40 35 40 00       	mov    $0x403540,%edi
  401da7:	e8 34 ef ff ff       	callq  400ce0 <puts@plt>
  401dac:	bf 23 34 40 00       	mov    $0x403423,%edi
  401db1:	e8 2a ef ff ff       	callq  400ce0 <puts@plt>
  401db6:	e9 9b 00 00 00       	jmpq   401e56 <notify_server+0x1d2>
  401dbb:	bf 2d 34 40 00       	mov    $0x40342d,%edi
  401dc0:	e8 1b ef ff ff       	callq  400ce0 <puts@plt>
  401dc5:	e9 8c 00 00 00       	jmpq   401e56 <notify_server+0x1d2>
  401dca:	85 db                	test   %ebx,%ebx
  401dcc:	74 07                	je     401dd5 <notify_server+0x151>
  401dce:	ba f1 33 40 00       	mov    $0x4033f1,%edx
  401dd3:	eb 05                	jmp    401dda <notify_server+0x156>
  401dd5:	ba f6 33 40 00       	mov    $0x4033f6,%edx
  401dda:	be 78 35 40 00       	mov    $0x403578,%esi
  401ddf:	bf 01 00 00 00       	mov    $0x1,%edi
  401de4:	b8 00 00 00 00       	mov    $0x0,%eax
  401de9:	e8 32 f0 ff ff       	callq  400e20 <__printf_chk@plt>
  401dee:	48 8b 15 6b 33 20 00 	mov    0x20336b(%rip),%rdx        # 605160 <user_id>
  401df5:	be 34 34 40 00       	mov    $0x403434,%esi
  401dfa:	bf 01 00 00 00       	mov    $0x1,%edi
  401dff:	b8 00 00 00 00       	mov    $0x0,%eax
  401e04:	e8 17 f0 ff ff       	callq  400e20 <__printf_chk@plt>
  401e09:	48 8b 15 68 33 20 00 	mov    0x203368(%rip),%rdx        # 605178 <course>
  401e10:	be 41 34 40 00       	mov    $0x403441,%esi
  401e15:	bf 01 00 00 00       	mov    $0x1,%edi
  401e1a:	b8 00 00 00 00       	mov    $0x0,%eax
  401e1f:	e8 fc ef ff ff       	callq  400e20 <__printf_chk@plt>
  401e24:	48 8b 15 45 33 20 00 	mov    0x203345(%rip),%rdx        # 605170 <lab>
  401e2b:	be 4d 34 40 00       	mov    $0x40344d,%esi
  401e30:	bf 01 00 00 00       	mov    $0x1,%edi
  401e35:	b8 00 00 00 00       	mov    $0x0,%eax
  401e3a:	e8 e1 ef ff ff       	callq  400e20 <__printf_chk@plt>
  401e3f:	48 89 e2             	mov    %rsp,%rdx
  401e42:	be 56 34 40 00       	mov    $0x403456,%esi
  401e47:	bf 01 00 00 00       	mov    $0x1,%edi
  401e4c:	b8 00 00 00 00       	mov    $0x0,%eax
  401e51:	e8 ca ef ff ff       	callq  400e20 <__printf_chk@plt>
  401e56:	48 8b 84 24 08 40 00 	mov    0x4008(%rsp),%rax
  401e5d:	00 
  401e5e:	64 48 33 04 25 28 00 	xor    %fs:0x28,%rax
  401e65:	00 00 
  401e67:	74 05                	je     401e6e <notify_server+0x1ea>
  401e69:	e8 92 ee ff ff       	callq  400d00 <__stack_chk_fail@plt>
  401e6e:	48 81 c4 10 40 00 00 	add    $0x4010,%rsp
  401e75:	5b                   	pop    %rbx
  401e76:	c3                   	retq   

0000000000401e77 <validate>:
  401e77:	53                   	push   %rbx
  401e78:	89 fb                	mov    %edi,%ebx
  401e7a:	83 3d a7 36 20 00 00 	cmpl   $0x0,0x2036a7(%rip)        # 605528 <is_checker>
  401e81:	74 6b                	je     401eee <validate+0x77>
  401e83:	39 3d 93 36 20 00    	cmp    %edi,0x203693(%rip)        # 60551c <vlevel>
  401e89:	74 14                	je     401e9f <validate+0x28>
  401e8b:	bf 62 34 40 00       	mov    $0x403462,%edi
  401e90:	e8 4b ee ff ff       	callq  400ce0 <puts@plt>
  401e95:	b8 00 00 00 00       	mov    $0x0,%eax
  401e9a:	e8 5e fd ff ff       	callq  401bfd <check_fail>
  401e9f:	8b 15 73 36 20 00    	mov    0x203673(%rip),%edx        # 605518 <check_level>
  401ea5:	39 d7                	cmp    %edx,%edi
  401ea7:	74 20                	je     401ec9 <validate+0x52>
  401ea9:	89 f9                	mov    %edi,%ecx
  401eab:	be a0 35 40 00       	mov    $0x4035a0,%esi
  401eb0:	bf 01 00 00 00       	mov    $0x1,%edi
  401eb5:	b8 00 00 00 00       	mov    $0x0,%eax
  401eba:	e8 61 ef ff ff       	callq  400e20 <__printf_chk@plt>
  401ebf:	b8 00 00 00 00       	mov    $0x0,%eax
  401ec4:	e8 34 fd ff ff       	callq  401bfd <check_fail>
  401ec9:	0f be 15 78 42 20 00 	movsbl 0x204278(%rip),%edx        # 606148 <target_prefix>
  401ed0:	41 b8 40 55 60 00    	mov    $0x605540,%r8d
  401ed6:	89 f9                	mov    %edi,%ecx
  401ed8:	be 80 34 40 00       	mov    $0x403480,%esi
  401edd:	bf 01 00 00 00       	mov    $0x1,%edi
  401ee2:	b8 00 00 00 00       	mov    $0x0,%eax
  401ee7:	e8 34 ef ff ff       	callq  400e20 <__printf_chk@plt>
  401eec:	eb 49                	jmp    401f37 <validate+0xc0>
  401eee:	3b 3d 28 36 20 00    	cmp    0x203628(%rip),%edi        # 60551c <vlevel>
  401ef4:	74 18                	je     401f0e <validate+0x97>
  401ef6:	bf 62 34 40 00       	mov    $0x403462,%edi
  401efb:	e8 e0 ed ff ff       	callq  400ce0 <puts@plt>
  401f00:	89 de                	mov    %ebx,%esi
  401f02:	bf 00 00 00 00       	mov    $0x0,%edi
  401f07:	e8 78 fd ff ff       	callq  401c84 <notify_server>
  401f0c:	eb 29                	jmp    401f37 <validate+0xc0>
  401f0e:	0f be 0d 33 42 20 00 	movsbl 0x204233(%rip),%ecx        # 606148 <target_prefix>
  401f15:	89 fa                	mov    %edi,%edx
  401f17:	be c8 35 40 00       	mov    $0x4035c8,%esi
  401f1c:	bf 01 00 00 00       	mov    $0x1,%edi
  401f21:	b8 00 00 00 00       	mov    $0x0,%eax
  401f26:	e8 f5 ee ff ff       	callq  400e20 <__printf_chk@plt>
  401f2b:	89 de                	mov    %ebx,%esi
  401f2d:	bf 01 00 00 00       	mov    $0x1,%edi
  401f32:	e8 4d fd ff ff       	callq  401c84 <notify_server>
  401f37:	5b                   	pop    %rbx
  401f38:	c3                   	retq   

0000000000401f39 <fail>:
  401f39:	48 83 ec 08          	sub    $0x8,%rsp
  401f3d:	83 3d e4 35 20 00 00 	cmpl   $0x0,0x2035e4(%rip)        # 605528 <is_checker>
  401f44:	74 0a                	je     401f50 <fail+0x17>
  401f46:	b8 00 00 00 00       	mov    $0x0,%eax
  401f4b:	e8 ad fc ff ff       	callq  401bfd <check_fail>
  401f50:	89 fe                	mov    %edi,%esi
  401f52:	bf 00 00 00 00       	mov    $0x0,%edi
  401f57:	e8 28 fd ff ff       	callq  401c84 <notify_server>
  401f5c:	48 83 c4 08          	add    $0x8,%rsp
  401f60:	c3                   	retq   

0000000000401f61 <bushandler>:
  401f61:	48 83 ec 08          	sub    $0x8,%rsp
  401f65:	83 3d bc 35 20 00 00 	cmpl   $0x0,0x2035bc(%rip)        # 605528 <is_checker>
  401f6c:	74 14                	je     401f82 <bushandler+0x21>
  401f6e:	bf 95 34 40 00       	mov    $0x403495,%edi
  401f73:	e8 68 ed ff ff       	callq  400ce0 <puts@plt>
  401f78:	b8 00 00 00 00       	mov    $0x0,%eax
  401f7d:	e8 7b fc ff ff       	callq  401bfd <check_fail>
  401f82:	bf 00 36 40 00       	mov    $0x403600,%edi
  401f87:	e8 54 ed ff ff       	callq  400ce0 <puts@plt>
  401f8c:	bf 9f 34 40 00       	mov    $0x40349f,%edi
  401f91:	e8 4a ed ff ff       	callq  400ce0 <puts@plt>
  401f96:	be 00 00 00 00       	mov    $0x0,%esi
  401f9b:	bf 00 00 00 00       	mov    $0x0,%edi
  401fa0:	e8 df fc ff ff       	callq  401c84 <notify_server>
  401fa5:	bf 01 00 00 00       	mov    $0x1,%edi
  401faa:	e8 c1 ee ff ff       	callq  400e70 <exit@plt>

0000000000401faf <seghandler>:
  401faf:	48 83 ec 08          	sub    $0x8,%rsp
  401fb3:	83 3d 6e 35 20 00 00 	cmpl   $0x0,0x20356e(%rip)        # 605528 <is_checker>
  401fba:	74 14                	je     401fd0 <seghandler+0x21>
  401fbc:	bf b5 34 40 00       	mov    $0x4034b5,%edi
  401fc1:	e8 1a ed ff ff       	callq  400ce0 <puts@plt>
  401fc6:	b8 00 00 00 00       	mov    $0x0,%eax
  401fcb:	e8 2d fc ff ff       	callq  401bfd <check_fail>
  401fd0:	bf 20 36 40 00       	mov    $0x403620,%edi
  401fd5:	e8 06 ed ff ff       	callq  400ce0 <puts@plt>
  401fda:	bf 9f 34 40 00       	mov    $0x40349f,%edi
  401fdf:	e8 fc ec ff ff       	callq  400ce0 <puts@plt>
  401fe4:	be 00 00 00 00       	mov    $0x0,%esi
  401fe9:	bf 00 00 00 00       	mov    $0x0,%edi
  401fee:	e8 91 fc ff ff       	callq  401c84 <notify_server>
  401ff3:	bf 01 00 00 00       	mov    $0x1,%edi
  401ff8:	e8 73 ee ff ff       	callq  400e70 <exit@plt>

0000000000401ffd <illegalhandler>:
  401ffd:	48 83 ec 08          	sub    $0x8,%rsp
  402001:	83 3d 20 35 20 00 00 	cmpl   $0x0,0x203520(%rip)        # 605528 <is_checker>
  402008:	74 14                	je     40201e <illegalhandler+0x21>
  40200a:	bf c8 34 40 00       	mov    $0x4034c8,%edi
  40200f:	e8 cc ec ff ff       	callq  400ce0 <puts@plt>
  402014:	b8 00 00 00 00       	mov    $0x0,%eax
  402019:	e8 df fb ff ff       	callq  401bfd <check_fail>
  40201e:	bf 48 36 40 00       	mov    $0x403648,%edi
  402023:	e8 b8 ec ff ff       	callq  400ce0 <puts@plt>
  402028:	bf 9f 34 40 00       	mov    $0x40349f,%edi
  40202d:	e8 ae ec ff ff       	callq  400ce0 <puts@plt>
  402032:	be 00 00 00 00       	mov    $0x0,%esi
  402037:	bf 00 00 00 00       	mov    $0x0,%edi
  40203c:	e8 43 fc ff ff       	callq  401c84 <notify_server>
  402041:	bf 01 00 00 00       	mov    $0x1,%edi
  402046:	e8 25 ee ff ff       	callq  400e70 <exit@plt>

000000000040204b <sigalrmhandler>:
  40204b:	48 83 ec 08          	sub    $0x8,%rsp
  40204f:	83 3d d2 34 20 00 00 	cmpl   $0x0,0x2034d2(%rip)        # 605528 <is_checker>
  402056:	74 14                	je     40206c <sigalrmhandler+0x21>
  402058:	bf dc 34 40 00       	mov    $0x4034dc,%edi
  40205d:	e8 7e ec ff ff       	callq  400ce0 <puts@plt>
  402062:	b8 00 00 00 00       	mov    $0x0,%eax
  402067:	e8 91 fb ff ff       	callq  401bfd <check_fail>
  40206c:	ba 05 00 00 00       	mov    $0x5,%edx
  402071:	be 78 36 40 00       	mov    $0x403678,%esi
  402076:	bf 01 00 00 00       	mov    $0x1,%edi
  40207b:	b8 00 00 00 00       	mov    $0x0,%eax
  402080:	e8 9b ed ff ff       	callq  400e20 <__printf_chk@plt>
  402085:	be 00 00 00 00       	mov    $0x0,%esi
  40208a:	bf 00 00 00 00       	mov    $0x0,%edi
  40208f:	e8 f0 fb ff ff       	callq  401c84 <notify_server>
  402094:	bf 01 00 00 00       	mov    $0x1,%edi
  402099:	e8 d2 ed ff ff       	callq  400e70 <exit@plt>

000000000040209e <launch>:
  40209e:	55                   	push   %rbp
  40209f:	48 89 e5             	mov    %rsp,%rbp
  4020a2:	48 83 ec 10          	sub    $0x10,%rsp
  4020a6:	48 89 fa             	mov    %rdi,%rdx
  4020a9:	64 48 8b 04 25 28 00 	mov    %fs:0x28,%rax
  4020b0:	00 00 
  4020b2:	48 89 45 f8          	mov    %rax,-0x8(%rbp)
  4020b6:	31 c0                	xor    %eax,%eax
  4020b8:	48 8d 47 1e          	lea    0x1e(%rdi),%rax
  4020bc:	48 83 e0 f0          	and    $0xfffffffffffffff0,%rax
  4020c0:	48 29 c4             	sub    %rax,%rsp
  4020c3:	48 8d 7c 24 0f       	lea    0xf(%rsp),%rdi
  4020c8:	48 83 e7 f0          	and    $0xfffffffffffffff0,%rdi
  4020cc:	be f4 00 00 00       	mov    $0xf4,%esi
  4020d1:	e8 4a ec ff ff       	callq  400d20 <memset@plt>
  4020d6:	48 8b 05 e3 33 20 00 	mov    0x2033e3(%rip),%rax        # 6054c0 <stdin@@GLIBC_2.2.5>
  4020dd:	48 39 05 2c 34 20 00 	cmp    %rax,0x20342c(%rip)        # 605510 <infile>
  4020e4:	75 14                	jne    4020fa <launch+0x5c>
  4020e6:	be e4 34 40 00       	mov    $0x4034e4,%esi
  4020eb:	bf 01 00 00 00       	mov    $0x1,%edi
  4020f0:	b8 00 00 00 00       	mov    $0x0,%eax
  4020f5:	e8 26 ed ff ff       	callq  400e20 <__printf_chk@plt>
  4020fa:	c7 05 18 34 20 00 00 	movl   $0x0,0x203418(%rip)        # 60551c <vlevel>
  402101:	00 00 00 
  402104:	b8 00 00 00 00       	mov    $0x0,%eax
  402109:	e8 3a f9 ff ff       	callq  401a48 <test>
  40210e:	83 3d 13 34 20 00 00 	cmpl   $0x0,0x203413(%rip)        # 605528 <is_checker>
  402115:	74 14                	je     40212b <launch+0x8d>
  402117:	bf f1 34 40 00       	mov    $0x4034f1,%edi
  40211c:	e8 bf eb ff ff       	callq  400ce0 <puts@plt>
  402121:	b8 00 00 00 00       	mov    $0x0,%eax
  402126:	e8 d2 fa ff ff       	callq  401bfd <check_fail>
  40212b:	bf fc 34 40 00       	mov    $0x4034fc,%edi
  402130:	e8 ab eb ff ff       	callq  400ce0 <puts@plt>
  402135:	48 8b 45 f8          	mov    -0x8(%rbp),%rax
  402139:	64 48 33 04 25 28 00 	xor    %fs:0x28,%rax
  402140:	00 00 
  402142:	74 05                	je     402149 <launch+0xab>
  402144:	e8 b7 eb ff ff       	callq  400d00 <__stack_chk_fail@plt>
  402149:	c9                   	leaveq 
  40214a:	c3                   	retq   

000000000040214b <stable_launch>:
  40214b:	53                   	push   %rbx
  40214c:	48 89 3d b5 33 20 00 	mov    %rdi,0x2033b5(%rip)        # 605508 <global_offset>
  402153:	41 b9 00 00 00 00    	mov    $0x0,%r9d
  402159:	41 b8 00 00 00 00    	mov    $0x0,%r8d
  40215f:	b9 32 01 00 00       	mov    $0x132,%ecx
  402164:	ba 07 00 00 00       	mov    $0x7,%edx
  402169:	be 00 00 10 00       	mov    $0x100000,%esi
  40216e:	bf 00 60 58 55       	mov    $0x55586000,%edi
  402173:	e8 98 eb ff ff       	callq  400d10 <mmap@plt>
  402178:	48 89 c3             	mov    %rax,%rbx
  40217b:	48 3d 00 60 58 55    	cmp    $0x55586000,%rax
  402181:	74 37                	je     4021ba <stable_launch+0x6f>
  402183:	be 00 00 10 00       	mov    $0x100000,%esi
  402188:	48 89 c7             	mov    %rax,%rdi
  40218b:	e8 80 ec ff ff       	callq  400e10 <munmap@plt>
  402190:	b9 00 60 58 55       	mov    $0x55586000,%ecx
  402195:	ba b0 36 40 00       	mov    $0x4036b0,%edx
  40219a:	be 01 00 00 00       	mov    $0x1,%esi
  40219f:	48 8b 3d 3a 33 20 00 	mov    0x20333a(%rip),%rdi        # 6054e0 <stderr@@GLIBC_2.2.5>
  4021a6:	b8 00 00 00 00       	mov    $0x0,%eax
  4021ab:	e8 e0 ec ff ff       	callq  400e90 <__fprintf_chk@plt>
  4021b0:	bf 01 00 00 00       	mov    $0x1,%edi
  4021b5:	e8 b6 ec ff ff       	callq  400e70 <exit@plt>
  4021ba:	48 8d 90 f8 ff 0f 00 	lea    0xffff8(%rax),%rdx
  4021c1:	48 89 15 88 3f 20 00 	mov    %rdx,0x203f88(%rip)        # 606150 <stack_top>
  4021c8:	48 89 e0             	mov    %rsp,%rax
  4021cb:	48 89 d4             	mov    %rdx,%rsp
  4021ce:	48 89 c2             	mov    %rax,%rdx
  4021d1:	48 89 15 28 33 20 00 	mov    %rdx,0x203328(%rip)        # 605500 <global_save_stack>
  4021d8:	48 8b 3d 29 33 20 00 	mov    0x203329(%rip),%rdi        # 605508 <global_offset>
  4021df:	e8 ba fe ff ff       	callq  40209e <launch>
  4021e4:	48 8b 05 15 33 20 00 	mov    0x203315(%rip),%rax        # 605500 <global_save_stack>
  4021eb:	48 89 c4             	mov    %rax,%rsp
  4021ee:	be 00 00 10 00       	mov    $0x100000,%esi
  4021f3:	48 89 df             	mov    %rbx,%rdi
  4021f6:	e8 15 ec ff ff       	callq  400e10 <munmap@plt>
  4021fb:	5b                   	pop    %rbx
  4021fc:	c3                   	retq   

00000000004021fd <rio_readinitb>:
  4021fd:	89 37                	mov    %esi,(%rdi)
  4021ff:	c7 47 04 00 00 00 00 	movl   $0x0,0x4(%rdi)
  402206:	48 8d 47 10          	lea    0x10(%rdi),%rax
  40220a:	48 89 47 08          	mov    %rax,0x8(%rdi)
  40220e:	c3                   	retq   

000000000040220f <sigalrm_handler>:
  40220f:	48 83 ec 08          	sub    $0x8,%rsp
  402213:	b9 00 00 00 00       	mov    $0x0,%ecx
  402218:	ba f0 36 40 00       	mov    $0x4036f0,%edx
  40221d:	be 01 00 00 00       	mov    $0x1,%esi
  402222:	48 8b 3d b7 32 20 00 	mov    0x2032b7(%rip),%rdi        # 6054e0 <stderr@@GLIBC_2.2.5>
  402229:	b8 00 00 00 00       	mov    $0x0,%eax
  40222e:	e8 5d ec ff ff       	callq  400e90 <__fprintf_chk@plt>
  402233:	bf 01 00 00 00       	mov    $0x1,%edi
  402238:	e8 33 ec ff ff       	callq  400e70 <exit@plt>

000000000040223d <rio_writen>:
  40223d:	41 55                	push   %r13
  40223f:	41 54                	push   %r12
  402241:	55                   	push   %rbp
  402242:	53                   	push   %rbx
  402243:	48 83 ec 08          	sub    $0x8,%rsp
  402247:	41 89 fc             	mov    %edi,%r12d
  40224a:	48 89 f5             	mov    %rsi,%rbp
  40224d:	49 89 d5             	mov    %rdx,%r13
  402250:	48 89 d3             	mov    %rdx,%rbx
  402253:	eb 28                	jmp    40227d <rio_writen+0x40>
  402255:	48 89 da             	mov    %rbx,%rdx
  402258:	48 89 ee             	mov    %rbp,%rsi
  40225b:	44 89 e7             	mov    %r12d,%edi
  40225e:	e8 8d ea ff ff       	callq  400cf0 <write@plt>
  402263:	48 85 c0             	test   %rax,%rax
  402266:	7f 0f                	jg     402277 <rio_writen+0x3a>
  402268:	e8 33 ea ff ff       	callq  400ca0 <__errno_location@plt>
  40226d:	83 38 04             	cmpl   $0x4,(%rax)
  402270:	75 15                	jne    402287 <rio_writen+0x4a>
  402272:	b8 00 00 00 00       	mov    $0x0,%eax
  402277:	48 29 c3             	sub    %rax,%rbx
  40227a:	48 01 c5             	add    %rax,%rbp
  40227d:	48 85 db             	test   %rbx,%rbx
  402280:	75 d3                	jne    402255 <rio_writen+0x18>
  402282:	4c 89 e8             	mov    %r13,%rax
  402285:	eb 07                	jmp    40228e <rio_writen+0x51>
  402287:	48 c7 c0 ff ff ff ff 	mov    $0xffffffffffffffff,%rax
  40228e:	48 83 c4 08          	add    $0x8,%rsp
  402292:	5b                   	pop    %rbx
  402293:	5d                   	pop    %rbp
  402294:	41 5c                	pop    %r12
  402296:	41 5d                	pop    %r13
  402298:	c3                   	retq   

0000000000402299 <rio_read>:
  402299:	41 55                	push   %r13
  40229b:	41 54                	push   %r12
  40229d:	55                   	push   %rbp
  40229e:	53                   	push   %rbx
  40229f:	48 83 ec 08          	sub    $0x8,%rsp
  4022a3:	48 89 fb             	mov    %rdi,%rbx
  4022a6:	49 89 f5             	mov    %rsi,%r13
  4022a9:	49 89 d4             	mov    %rdx,%r12
  4022ac:	eb 2e                	jmp    4022dc <rio_read+0x43>
  4022ae:	48 8d 6b 10          	lea    0x10(%rbx),%rbp
  4022b2:	8b 3b                	mov    (%rbx),%edi
  4022b4:	ba 00 20 00 00       	mov    $0x2000,%edx
  4022b9:	48 89 ee             	mov    %rbp,%rsi
  4022bc:	e8 8f ea ff ff       	callq  400d50 <read@plt>
  4022c1:	89 43 04             	mov    %eax,0x4(%rbx)
  4022c4:	85 c0                	test   %eax,%eax
  4022c6:	79 0c                	jns    4022d4 <rio_read+0x3b>
  4022c8:	e8 d3 e9 ff ff       	callq  400ca0 <__errno_location@plt>
  4022cd:	83 38 04             	cmpl   $0x4,(%rax)
  4022d0:	74 0a                	je     4022dc <rio_read+0x43>
  4022d2:	eb 37                	jmp    40230b <rio_read+0x72>
  4022d4:	85 c0                	test   %eax,%eax
  4022d6:	74 3c                	je     402314 <rio_read+0x7b>
  4022d8:	48 89 6b 08          	mov    %rbp,0x8(%rbx)
  4022dc:	8b 6b 04             	mov    0x4(%rbx),%ebp
  4022df:	85 ed                	test   %ebp,%ebp
  4022e1:	7e cb                	jle    4022ae <rio_read+0x15>
  4022e3:	89 e8                	mov    %ebp,%eax
  4022e5:	49 39 c4             	cmp    %rax,%r12
  4022e8:	77 03                	ja     4022ed <rio_read+0x54>
  4022ea:	44 89 e5             	mov    %r12d,%ebp
  4022ed:	4c 63 e5             	movslq %ebp,%r12
  4022f0:	48 8b 73 08          	mov    0x8(%rbx),%rsi
  4022f4:	4c 89 e2             	mov    %r12,%rdx
  4022f7:	4c 89 ef             	mov    %r13,%rdi
  4022fa:	e8 c1 ea ff ff       	callq  400dc0 <memcpy@plt>
  4022ff:	4c 01 63 08          	add    %r12,0x8(%rbx)
  402303:	29 6b 04             	sub    %ebp,0x4(%rbx)
  402306:	4c 89 e0             	mov    %r12,%rax
  402309:	eb 0e                	jmp    402319 <rio_read+0x80>
  40230b:	48 c7 c0 ff ff ff ff 	mov    $0xffffffffffffffff,%rax
  402312:	eb 05                	jmp    402319 <rio_read+0x80>
  402314:	b8 00 00 00 00       	mov    $0x0,%eax
  402319:	48 83 c4 08          	add    $0x8,%rsp
  40231d:	5b                   	pop    %rbx
  40231e:	5d                   	pop    %rbp
  40231f:	41 5c                	pop    %r12
  402321:	41 5d                	pop    %r13
  402323:	c3                   	retq   

0000000000402324 <rio_readlineb>:
  402324:	41 55                	push   %r13
  402326:	41 54                	push   %r12
  402328:	55                   	push   %rbp
  402329:	53                   	push   %rbx
  40232a:	48 83 ec 18          	sub    $0x18,%rsp
  40232e:	49 89 fd             	mov    %rdi,%r13
  402331:	48 89 f5             	mov    %rsi,%rbp
  402334:	49 89 d4             	mov    %rdx,%r12
  402337:	64 48 8b 04 25 28 00 	mov    %fs:0x28,%rax
  40233e:	00 00 
  402340:	48 89 44 24 08       	mov    %rax,0x8(%rsp)
  402345:	31 c0                	xor    %eax,%eax
  402347:	bb 01 00 00 00       	mov    $0x1,%ebx
  40234c:	eb 3f                	jmp    40238d <rio_readlineb+0x69>
  40234e:	ba 01 00 00 00       	mov    $0x1,%edx
  402353:	48 8d 74 24 07       	lea    0x7(%rsp),%rsi
  402358:	4c 89 ef             	mov    %r13,%rdi
  40235b:	e8 39 ff ff ff       	callq  402299 <rio_read>
  402360:	83 f8 01             	cmp    $0x1,%eax
  402363:	75 15                	jne    40237a <rio_readlineb+0x56>
  402365:	48 8d 45 01          	lea    0x1(%rbp),%rax
  402369:	0f b6 54 24 07       	movzbl 0x7(%rsp),%edx
  40236e:	88 55 00             	mov    %dl,0x0(%rbp)
  402371:	80 7c 24 07 0a       	cmpb   $0xa,0x7(%rsp)
  402376:	75 0e                	jne    402386 <rio_readlineb+0x62>
  402378:	eb 1a                	jmp    402394 <rio_readlineb+0x70>
  40237a:	85 c0                	test   %eax,%eax
  40237c:	75 22                	jne    4023a0 <rio_readlineb+0x7c>
  40237e:	48 83 fb 01          	cmp    $0x1,%rbx
  402382:	75 13                	jne    402397 <rio_readlineb+0x73>
  402384:	eb 23                	jmp    4023a9 <rio_readlineb+0x85>
  402386:	48 83 c3 01          	add    $0x1,%rbx
  40238a:	48 89 c5             	mov    %rax,%rbp
  40238d:	4c 39 e3             	cmp    %r12,%rbx
  402390:	72 bc                	jb     40234e <rio_readlineb+0x2a>
  402392:	eb 03                	jmp    402397 <rio_readlineb+0x73>
  402394:	48 89 c5             	mov    %rax,%rbp
  402397:	c6 45 00 00          	movb   $0x0,0x0(%rbp)
  40239b:	48 89 d8             	mov    %rbx,%rax
  40239e:	eb 0e                	jmp    4023ae <rio_readlineb+0x8a>
  4023a0:	48 c7 c0 ff ff ff ff 	mov    $0xffffffffffffffff,%rax
  4023a7:	eb 05                	jmp    4023ae <rio_readlineb+0x8a>
  4023a9:	b8 00 00 00 00       	mov    $0x0,%eax
  4023ae:	48 8b 4c 24 08       	mov    0x8(%rsp),%rcx
  4023b3:	64 48 33 0c 25 28 00 	xor    %fs:0x28,%rcx
  4023ba:	00 00 
  4023bc:	74 05                	je     4023c3 <rio_readlineb+0x9f>
  4023be:	e8 3d e9 ff ff       	callq  400d00 <__stack_chk_fail@plt>
  4023c3:	48 83 c4 18          	add    $0x18,%rsp
  4023c7:	5b                   	pop    %rbx
  4023c8:	5d                   	pop    %rbp
  4023c9:	41 5c                	pop    %r12
  4023cb:	41 5d                	pop    %r13
  4023cd:	c3                   	retq   

00000000004023ce <urlencode>:
  4023ce:	41 54                	push   %r12
  4023d0:	55                   	push   %rbp
  4023d1:	53                   	push   %rbx
  4023d2:	48 83 ec 10          	sub    $0x10,%rsp
  4023d6:	48 89 fb             	mov    %rdi,%rbx
  4023d9:	48 89 f5             	mov    %rsi,%rbp
  4023dc:	64 48 8b 04 25 28 00 	mov    %fs:0x28,%rax
  4023e3:	00 00 
  4023e5:	48 89 44 24 08       	mov    %rax,0x8(%rsp)
  4023ea:	31 c0                	xor    %eax,%eax
  4023ec:	48 c7 c1 ff ff ff ff 	mov    $0xffffffffffffffff,%rcx
  4023f3:	f2 ae                	repnz scas %es:(%rdi),%al
  4023f5:	48 f7 d1             	not    %rcx
  4023f8:	8d 41 ff             	lea    -0x1(%rcx),%eax
  4023fb:	e9 aa 00 00 00       	jmpq   4024aa <urlencode+0xdc>
  402400:	44 0f b6 03          	movzbl (%rbx),%r8d
  402404:	41 80 f8 2a          	cmp    $0x2a,%r8b
  402408:	0f 94 c2             	sete   %dl
  40240b:	41 80 f8 2d          	cmp    $0x2d,%r8b
  40240f:	0f 94 c0             	sete   %al
  402412:	08 c2                	or     %al,%dl
  402414:	75 24                	jne    40243a <urlencode+0x6c>
  402416:	41 80 f8 2e          	cmp    $0x2e,%r8b
  40241a:	74 1e                	je     40243a <urlencode+0x6c>
  40241c:	41 80 f8 5f          	cmp    $0x5f,%r8b
  402420:	74 18                	je     40243a <urlencode+0x6c>
  402422:	41 8d 40 d0          	lea    -0x30(%r8),%eax
  402426:	3c 09                	cmp    $0x9,%al
  402428:	76 10                	jbe    40243a <urlencode+0x6c>
  40242a:	41 8d 40 bf          	lea    -0x41(%r8),%eax
  40242e:	3c 19                	cmp    $0x19,%al
  402430:	76 08                	jbe    40243a <urlencode+0x6c>
  402432:	41 8d 40 9f          	lea    -0x61(%r8),%eax
  402436:	3c 19                	cmp    $0x19,%al
  402438:	77 0a                	ja     402444 <urlencode+0x76>
  40243a:	44 88 45 00          	mov    %r8b,0x0(%rbp)
  40243e:	48 8d 6d 01          	lea    0x1(%rbp),%rbp
  402442:	eb 5f                	jmp    4024a3 <urlencode+0xd5>
  402444:	41 80 f8 20          	cmp    $0x20,%r8b
  402448:	75 0a                	jne    402454 <urlencode+0x86>
  40244a:	c6 45 00 2b          	movb   $0x2b,0x0(%rbp)
  40244e:	48 8d 6d 01          	lea    0x1(%rbp),%rbp
  402452:	eb 4f                	jmp    4024a3 <urlencode+0xd5>
  402454:	41 8d 40 e0          	lea    -0x20(%r8),%eax
  402458:	3c 5f                	cmp    $0x5f,%al
  40245a:	0f 96 c2             	setbe  %dl
  40245d:	41 80 f8 09          	cmp    $0x9,%r8b
  402461:	0f 94 c0             	sete   %al
  402464:	08 c2                	or     %al,%dl
  402466:	74 50                	je     4024b8 <urlencode+0xea>
  402468:	45 0f b6 c0          	movzbl %r8b,%r8d
  40246c:	b9 88 37 40 00       	mov    $0x403788,%ecx
  402471:	ba 08 00 00 00       	mov    $0x8,%edx
  402476:	be 01 00 00 00       	mov    $0x1,%esi
  40247b:	48 89 e7             	mov    %rsp,%rdi
  40247e:	b8 00 00 00 00       	mov    $0x0,%eax
  402483:	e8 18 ea ff ff       	callq  400ea0 <__sprintf_chk@plt>
  402488:	0f b6 04 24          	movzbl (%rsp),%eax
  40248c:	88 45 00             	mov    %al,0x0(%rbp)
  40248f:	0f b6 44 24 01       	movzbl 0x1(%rsp),%eax
  402494:	88 45 01             	mov    %al,0x1(%rbp)
  402497:	0f b6 44 24 02       	movzbl 0x2(%rsp),%eax
  40249c:	88 45 02             	mov    %al,0x2(%rbp)
  40249f:	48 8d 6d 03          	lea    0x3(%rbp),%rbp
  4024a3:	48 83 c3 01          	add    $0x1,%rbx
  4024a7:	44 89 e0             	mov    %r12d,%eax
  4024aa:	44 8d 60 ff          	lea    -0x1(%rax),%r12d
  4024ae:	85 c0                	test   %eax,%eax
  4024b0:	0f 85 4a ff ff ff    	jne    402400 <urlencode+0x32>
  4024b6:	eb 05                	jmp    4024bd <urlencode+0xef>
  4024b8:	b8 ff ff ff ff       	mov    $0xffffffff,%eax
  4024bd:	48 8b 74 24 08       	mov    0x8(%rsp),%rsi
  4024c2:	64 48 33 34 25 28 00 	xor    %fs:0x28,%rsi
  4024c9:	00 00 
  4024cb:	74 05                	je     4024d2 <urlencode+0x104>
  4024cd:	e8 2e e8 ff ff       	callq  400d00 <__stack_chk_fail@plt>
  4024d2:	48 83 c4 10          	add    $0x10,%rsp
  4024d6:	5b                   	pop    %rbx
  4024d7:	5d                   	pop    %rbp
  4024d8:	41 5c                	pop    %r12
  4024da:	c3                   	retq   

00000000004024db <submitr>:
  4024db:	41 57                	push   %r15
  4024dd:	41 56                	push   %r14
  4024df:	41 55                	push   %r13
  4024e1:	41 54                	push   %r12
  4024e3:	55                   	push   %rbp
  4024e4:	53                   	push   %rbx
  4024e5:	48 81 ec 58 a0 00 00 	sub    $0xa058,%rsp
  4024ec:	49 89 fc             	mov    %rdi,%r12
  4024ef:	89 74 24 04          	mov    %esi,0x4(%rsp)
  4024f3:	49 89 d7             	mov    %rdx,%r15
  4024f6:	49 89 ce             	mov    %rcx,%r14
  4024f9:	4c 89 44 24 08       	mov    %r8,0x8(%rsp)
  4024fe:	4d 89 cd             	mov    %r9,%r13
  402501:	48 8b 9c 24 90 a0 00 	mov    0xa090(%rsp),%rbx
  402508:	00 
  402509:	64 48 8b 04 25 28 00 	mov    %fs:0x28,%rax
  402510:	00 00 
  402512:	48 89 84 24 48 a0 00 	mov    %rax,0xa048(%rsp)
  402519:	00 
  40251a:	31 c0                	xor    %eax,%eax
  40251c:	c7 44 24 1c 00 00 00 	movl   $0x0,0x1c(%rsp)
  402523:	00 
  402524:	ba 00 00 00 00       	mov    $0x0,%edx
  402529:	be 01 00 00 00       	mov    $0x1,%esi
  40252e:	bf 02 00 00 00       	mov    $0x2,%edi
  402533:	e8 78 e9 ff ff       	callq  400eb0 <socket@plt>
  402538:	85 c0                	test   %eax,%eax
  40253a:	79 4e                	jns    40258a <submitr+0xaf>
  40253c:	48 b8 45 72 72 6f 72 	movabs $0x43203a726f727245,%rax
  402543:	3a 20 43 
  402546:	48 89 03             	mov    %rax,(%rbx)
  402549:	48 b8 6c 69 65 6e 74 	movabs $0x6e7520746e65696c,%rax
  402550:	20 75 6e 
  402553:	48 89 43 08          	mov    %rax,0x8(%rbx)
  402557:	48 b8 61 62 6c 65 20 	movabs $0x206f7420656c6261,%rax
  40255e:	74 6f 20 
  402561:	48 89 43 10          	mov    %rax,0x10(%rbx)
  402565:	48 b8 63 72 65 61 74 	movabs $0x7320657461657263,%rax
  40256c:	65 20 73 
  40256f:	48 89 43 18          	mov    %rax,0x18(%rbx)
  402573:	c7 43 20 6f 63 6b 65 	movl   $0x656b636f,0x20(%rbx)
  40257a:	66 c7 43 24 74 00    	movw   $0x74,0x24(%rbx)
  402580:	b8 ff ff ff ff       	mov    $0xffffffff,%eax
  402585:	e9 97 06 00 00       	jmpq   402c21 <submitr+0x746>
  40258a:	89 c5                	mov    %eax,%ebp
  40258c:	4c 89 e7             	mov    %r12,%rdi
  40258f:	e8 ec e7 ff ff       	callq  400d80 <gethostbyname@plt>
  402594:	48 85 c0             	test   %rax,%rax
  402597:	75 67                	jne    402600 <submitr+0x125>
  402599:	48 b8 45 72 72 6f 72 	movabs $0x44203a726f727245,%rax
  4025a0:	3a 20 44 
  4025a3:	48 89 03             	mov    %rax,(%rbx)
  4025a6:	48 b8 4e 53 20 69 73 	movabs $0x6e7520736920534e,%rax
  4025ad:	20 75 6e 
  4025b0:	48 89 43 08          	mov    %rax,0x8(%rbx)
  4025b4:	48 b8 61 62 6c 65 20 	movabs $0x206f7420656c6261,%rax
  4025bb:	74 6f 20 
  4025be:	48 89 43 10          	mov    %rax,0x10(%rbx)
  4025c2:	48 b8 72 65 73 6f 6c 	movabs $0x2065766c6f736572,%rax
  4025c9:	76 65 20 
  4025cc:	48 89 43 18          	mov    %rax,0x18(%rbx)
  4025d0:	48 b8 73 65 72 76 65 	movabs $0x6120726576726573,%rax
  4025d7:	72 20 61 
  4025da:	48 89 43 20          	mov    %rax,0x20(%rbx)
  4025de:	c7 43 28 64 64 72 65 	movl   $0x65726464,0x28(%rbx)
  4025e5:	66 c7 43 2c 73 73    	movw   $0x7373,0x2c(%rbx)
  4025eb:	c6 43 2e 00          	movb   $0x0,0x2e(%rbx)
  4025ef:	89 ef                	mov    %ebp,%edi
  4025f1:	e8 4a e7 ff ff       	callq  400d40 <close@plt>
  4025f6:	b8 ff ff ff ff       	mov    $0xffffffff,%eax
  4025fb:	e9 21 06 00 00       	jmpq   402c21 <submitr+0x746>
  402600:	48 c7 44 24 20 00 00 	movq   $0x0,0x20(%rsp)
  402607:	00 00 
  402609:	48 c7 44 24 28 00 00 	movq   $0x0,0x28(%rsp)
  402610:	00 00 
  402612:	66 c7 44 24 20 02 00 	movw   $0x2,0x20(%rsp)
  402619:	48 63 50 14          	movslq 0x14(%rax),%rdx
  40261d:	48 8b 40 18          	mov    0x18(%rax),%rax
  402621:	48 8b 30             	mov    (%rax),%rsi
  402624:	48 8d 7c 24 24       	lea    0x24(%rsp),%rdi
  402629:	b9 0c 00 00 00       	mov    $0xc,%ecx
  40262e:	e8 5d e7 ff ff       	callq  400d90 <__memmove_chk@plt>
  402633:	0f b7 44 24 04       	movzwl 0x4(%rsp),%eax
  402638:	66 c1 c8 08          	ror    $0x8,%ax
  40263c:	66 89 44 24 22       	mov    %ax,0x22(%rsp)
  402641:	ba 10 00 00 00       	mov    $0x10,%edx
  402646:	48 8d 74 24 20       	lea    0x20(%rsp),%rsi
  40264b:	89 ef                	mov    %ebp,%edi
  40264d:	e8 2e e8 ff ff       	callq  400e80 <connect@plt>
  402652:	85 c0                	test   %eax,%eax
  402654:	79 59                	jns    4026af <submitr+0x1d4>
  402656:	48 b8 45 72 72 6f 72 	movabs $0x55203a726f727245,%rax
  40265d:	3a 20 55 
  402660:	48 89 03             	mov    %rax,(%rbx)
  402663:	48 b8 6e 61 62 6c 65 	movabs $0x6f7420656c62616e,%rax
  40266a:	20 74 6f 
  40266d:	48 89 43 08          	mov    %rax,0x8(%rbx)
  402671:	48 b8 20 63 6f 6e 6e 	movabs $0x7463656e6e6f6320,%rax
  402678:	65 63 74 
  40267b:	48 89 43 10          	mov    %rax,0x10(%rbx)
  40267f:	48 b8 20 74 6f 20 74 	movabs $0x20656874206f7420,%rax
  402686:	68 65 20 
  402689:	48 89 43 18          	mov    %rax,0x18(%rbx)
  40268d:	c7 43 20 73 65 72 76 	movl   $0x76726573,0x20(%rbx)
  402694:	66 c7 43 24 65 72    	movw   $0x7265,0x24(%rbx)
  40269a:	c6 43 26 00          	movb   $0x0,0x26(%rbx)
  40269e:	89 ef                	mov    %ebp,%edi
  4026a0:	e8 9b e6 ff ff       	callq  400d40 <close@plt>
  4026a5:	b8 ff ff ff ff       	mov    $0xffffffff,%eax
  4026aa:	e9 72 05 00 00       	jmpq   402c21 <submitr+0x746>
  4026af:	48 c7 c6 ff ff ff ff 	mov    $0xffffffffffffffff,%rsi
  4026b6:	b8 00 00 00 00       	mov    $0x0,%eax
  4026bb:	48 89 f1             	mov    %rsi,%rcx
  4026be:	4c 89 ef             	mov    %r13,%rdi
  4026c1:	f2 ae                	repnz scas %es:(%rdi),%al
  4026c3:	48 f7 d1             	not    %rcx
  4026c6:	48 89 ca             	mov    %rcx,%rdx
  4026c9:	48 89 f1             	mov    %rsi,%rcx
  4026cc:	4c 89 ff             	mov    %r15,%rdi
  4026cf:	f2 ae                	repnz scas %es:(%rdi),%al
  4026d1:	48 f7 d1             	not    %rcx
  4026d4:	49 89 c8             	mov    %rcx,%r8
  4026d7:	48 89 f1             	mov    %rsi,%rcx
  4026da:	4c 89 f7             	mov    %r14,%rdi
  4026dd:	f2 ae                	repnz scas %es:(%rdi),%al
  4026df:	48 f7 d1             	not    %rcx
  4026e2:	4d 8d 44 08 fe       	lea    -0x2(%r8,%rcx,1),%r8
  4026e7:	48 89 f1             	mov    %rsi,%rcx
  4026ea:	48 8b 7c 24 08       	mov    0x8(%rsp),%rdi
  4026ef:	f2 ae                	repnz scas %es:(%rdi),%al
  4026f1:	48 89 c8             	mov    %rcx,%rax
  4026f4:	48 f7 d0             	not    %rax
  4026f7:	49 8d 4c 00 ff       	lea    -0x1(%r8,%rax,1),%rcx
  4026fc:	48 8d 44 52 fd       	lea    -0x3(%rdx,%rdx,2),%rax
  402701:	48 8d 84 01 80 00 00 	lea    0x80(%rcx,%rax,1),%rax
  402708:	00 
  402709:	48 3d 00 20 00 00    	cmp    $0x2000,%rax
  40270f:	76 72                	jbe    402783 <submitr+0x2a8>
  402711:	48 b8 45 72 72 6f 72 	movabs $0x52203a726f727245,%rax
  402718:	3a 20 52 
  40271b:	48 89 03             	mov    %rax,(%rbx)
  40271e:	48 b8 65 73 75 6c 74 	movabs $0x747320746c757365,%rax
  402725:	20 73 74 
  402728:	48 89 43 08          	mov    %rax,0x8(%rbx)
  40272c:	48 b8 72 69 6e 67 20 	movabs $0x6f6f7420676e6972,%rax
  402733:	74 6f 6f 
  402736:	48 89 43 10          	mov    %rax,0x10(%rbx)
  40273a:	48 b8 20 6c 61 72 67 	movabs $0x202e656772616c20,%rax
  402741:	65 2e 20 
  402744:	48 89 43 18          	mov    %rax,0x18(%rbx)
  402748:	48 b8 49 6e 63 72 65 	movabs $0x6573616572636e49,%rax
  40274f:	61 73 65 
  402752:	48 89 43 20          	mov    %rax,0x20(%rbx)
  402756:	48 b8 20 53 55 42 4d 	movabs $0x5254494d42555320,%rax
  40275d:	49 54 52 
  402760:	48 89 43 28          	mov    %rax,0x28(%rbx)
  402764:	48 b8 5f 4d 41 58 42 	movabs $0x46554258414d5f,%rax
  40276b:	55 46 00 
  40276e:	48 89 43 30          	mov    %rax,0x30(%rbx)
  402772:	89 ef                	mov    %ebp,%edi
  402774:	e8 c7 e5 ff ff       	callq  400d40 <close@plt>
  402779:	b8 ff ff ff ff       	mov    $0xffffffff,%eax
  40277e:	e9 9e 04 00 00       	jmpq   402c21 <submitr+0x746>
  402783:	48 8d b4 24 40 40 00 	lea    0x4040(%rsp),%rsi
  40278a:	00 
  40278b:	b9 00 04 00 00       	mov    $0x400,%ecx
  402790:	b8 00 00 00 00       	mov    $0x0,%eax
  402795:	48 89 f7             	mov    %rsi,%rdi
  402798:	f3 48 ab             	rep stos %rax,%es:(%rdi)
  40279b:	4c 89 ef             	mov    %r13,%rdi
  40279e:	e8 2b fc ff ff       	callq  4023ce <urlencode>
  4027a3:	85 c0                	test   %eax,%eax
  4027a5:	0f 89 8a 00 00 00    	jns    402835 <submitr+0x35a>
  4027ab:	48 b8 45 72 72 6f 72 	movabs $0x52203a726f727245,%rax
  4027b2:	3a 20 52 
  4027b5:	48 89 03             	mov    %rax,(%rbx)
  4027b8:	48 b8 65 73 75 6c 74 	movabs $0x747320746c757365,%rax
  4027bf:	20 73 74 
  4027c2:	48 89 43 08          	mov    %rax,0x8(%rbx)
  4027c6:	48 b8 72 69 6e 67 20 	movabs $0x6e6f6320676e6972,%rax
  4027cd:	63 6f 6e 
  4027d0:	48 89 43 10          	mov    %rax,0x10(%rbx)
  4027d4:	48 b8 74 61 69 6e 73 	movabs $0x6e6120736e696174,%rax
  4027db:	20 61 6e 
  4027de:	48 89 43 18          	mov    %rax,0x18(%rbx)
  4027e2:	48 b8 20 69 6c 6c 65 	movabs $0x6c6167656c6c6920,%rax
  4027e9:	67 61 6c 
  4027ec:	48 89 43 20          	mov    %rax,0x20(%rbx)
  4027f0:	48 b8 20 6f 72 20 75 	movabs $0x72706e7520726f20,%rax
  4027f7:	6e 70 72 
  4027fa:	48 89 43 28          	mov    %rax,0x28(%rbx)
  4027fe:	48 b8 69 6e 74 61 62 	movabs $0x20656c6261746e69,%rax
  402805:	6c 65 20 
  402808:	48 89 43 30          	mov    %rax,0x30(%rbx)
  40280c:	48 b8 63 68 61 72 61 	movabs $0x6574636172616863,%rax
  402813:	63 74 65 
  402816:	48 89 43 38          	mov    %rax,0x38(%rbx)
  40281a:	66 c7 43 40 72 2e    	movw   $0x2e72,0x40(%rbx)
  402820:	c6 43 42 00          	movb   $0x0,0x42(%rbx)
  402824:	89 ef                	mov    %ebp,%edi
  402826:	e8 15 e5 ff ff       	callq  400d40 <close@plt>
  40282b:	b8 ff ff ff ff       	mov    $0xffffffff,%eax
  402830:	e9 ec 03 00 00       	jmpq   402c21 <submitr+0x746>
  402835:	4c 8d ac 24 40 20 00 	lea    0x2040(%rsp),%r13
  40283c:	00 
  40283d:	41 54                	push   %r12
  40283f:	48 8d 84 24 48 40 00 	lea    0x4048(%rsp),%rax
  402846:	00 
  402847:	50                   	push   %rax
  402848:	4d 89 f9             	mov    %r15,%r9
  40284b:	4d 89 f0             	mov    %r14,%r8
  40284e:	b9 18 37 40 00       	mov    $0x403718,%ecx
  402853:	ba 00 20 00 00       	mov    $0x2000,%edx
  402858:	be 01 00 00 00       	mov    $0x1,%esi
  40285d:	4c 89 ef             	mov    %r13,%rdi
  402860:	b8 00 00 00 00       	mov    $0x0,%eax
  402865:	e8 36 e6 ff ff       	callq  400ea0 <__sprintf_chk@plt>
  40286a:	b8 00 00 00 00       	mov    $0x0,%eax
  40286f:	48 c7 c1 ff ff ff ff 	mov    $0xffffffffffffffff,%rcx
  402876:	4c 89 ef             	mov    %r13,%rdi
  402879:	f2 ae                	repnz scas %es:(%rdi),%al
  40287b:	48 f7 d1             	not    %rcx
  40287e:	48 8d 51 ff          	lea    -0x1(%rcx),%rdx
  402882:	4c 89 ee             	mov    %r13,%rsi
  402885:	89 ef                	mov    %ebp,%edi
  402887:	e8 b1 f9 ff ff       	callq  40223d <rio_writen>
  40288c:	48 83 c4 10          	add    $0x10,%rsp
  402890:	48 85 c0             	test   %rax,%rax
  402893:	79 6e                	jns    402903 <submitr+0x428>
  402895:	48 b8 45 72 72 6f 72 	movabs $0x43203a726f727245,%rax
  40289c:	3a 20 43 
  40289f:	48 89 03             	mov    %rax,(%rbx)
  4028a2:	48 b8 6c 69 65 6e 74 	movabs $0x6e7520746e65696c,%rax
  4028a9:	20 75 6e 
  4028ac:	48 89 43 08          	mov    %rax,0x8(%rbx)
  4028b0:	48 b8 61 62 6c 65 20 	movabs $0x206f7420656c6261,%rax
  4028b7:	74 6f 20 
  4028ba:	48 89 43 10          	mov    %rax,0x10(%rbx)
  4028be:	48 b8 77 72 69 74 65 	movabs $0x6f74206574697277,%rax
  4028c5:	20 74 6f 
  4028c8:	48 89 43 18          	mov    %rax,0x18(%rbx)
  4028cc:	48 b8 20 74 68 65 20 	movabs $0x7365722065687420,%rax
  4028d3:	72 65 73 
  4028d6:	48 89 43 20          	mov    %rax,0x20(%rbx)
  4028da:	48 b8 75 6c 74 20 73 	movabs $0x7672657320746c75,%rax
  4028e1:	65 72 76 
  4028e4:	48 89 43 28          	mov    %rax,0x28(%rbx)
  4028e8:	66 c7 43 30 65 72    	movw   $0x7265,0x30(%rbx)
  4028ee:	c6 43 32 00          	movb   $0x0,0x32(%rbx)
  4028f2:	89 ef                	mov    %ebp,%edi
  4028f4:	e8 47 e4 ff ff       	callq  400d40 <close@plt>
  4028f9:	b8 ff ff ff ff       	mov    $0xffffffff,%eax
  4028fe:	e9 1e 03 00 00       	jmpq   402c21 <submitr+0x746>
  402903:	89 ee                	mov    %ebp,%esi
  402905:	48 8d 7c 24 30       	lea    0x30(%rsp),%rdi
  40290a:	e8 ee f8 ff ff       	callq  4021fd <rio_readinitb>
  40290f:	ba 00 20 00 00       	mov    $0x2000,%edx
  402914:	48 8d b4 24 40 20 00 	lea    0x2040(%rsp),%rsi
  40291b:	00 
  40291c:	48 8d 7c 24 30       	lea    0x30(%rsp),%rdi
  402921:	e8 fe f9 ff ff       	callq  402324 <rio_readlineb>
  402926:	48 85 c0             	test   %rax,%rax
  402929:	7f 7d                	jg     4029a8 <submitr+0x4cd>
  40292b:	48 b8 45 72 72 6f 72 	movabs $0x43203a726f727245,%rax
  402932:	3a 20 43 
  402935:	48 89 03             	mov    %rax,(%rbx)
  402938:	48 b8 6c 69 65 6e 74 	movabs $0x6e7520746e65696c,%rax
  40293f:	20 75 6e 
  402942:	48 89 43 08          	mov    %rax,0x8(%rbx)
  402946:	48 b8 61 62 6c 65 20 	movabs $0x206f7420656c6261,%rax
  40294d:	74 6f 20 
  402950:	48 89 43 10          	mov    %rax,0x10(%rbx)
  402954:	48 b8 72 65 61 64 20 	movabs $0x7269662064616572,%rax
  40295b:	66 69 72 
  40295e:	48 89 43 18          	mov    %rax,0x18(%rbx)
  402962:	48 b8 73 74 20 68 65 	movabs $0x6564616568207473,%rax
  402969:	61 64 65 
  40296c:	48 89 43 20          	mov    %rax,0x20(%rbx)
  402970:	48 b8 72 20 66 72 6f 	movabs $0x72206d6f72662072,%rax
  402977:	6d 20 72 
  40297a:	48 89 43 28          	mov    %rax,0x28(%rbx)
  40297e:	48 b8 65 73 75 6c 74 	movabs $0x657320746c757365,%rax
  402985:	20 73 65 
  402988:	48 89 43 30          	mov    %rax,0x30(%rbx)
  40298c:	c7 43 38 72 76 65 72 	movl   $0x72657672,0x38(%rbx)
  402993:	c6 43 3c 00          	movb   $0x0,0x3c(%rbx)
  402997:	89 ef                	mov    %ebp,%edi
  402999:	e8 a2 e3 ff ff       	callq  400d40 <close@plt>
  40299e:	b8 ff ff ff ff       	mov    $0xffffffff,%eax
  4029a3:	e9 79 02 00 00       	jmpq   402c21 <submitr+0x746>
  4029a8:	4c 8d 84 24 40 80 00 	lea    0x8040(%rsp),%r8
  4029af:	00 
  4029b0:	48 8d 4c 24 1c       	lea    0x1c(%rsp),%rcx
  4029b5:	48 8d 94 24 40 60 00 	lea    0x6040(%rsp),%rdx
  4029bc:	00 
  4029bd:	be 8f 37 40 00       	mov    $0x40378f,%esi
  4029c2:	48 8d bc 24 40 20 00 	lea    0x2040(%rsp),%rdi
  4029c9:	00 
  4029ca:	b8 00 00 00 00       	mov    $0x0,%eax
  4029cf:	e8 2c e4 ff ff       	callq  400e00 <__isoc99_sscanf@plt>
  4029d4:	e9 95 00 00 00       	jmpq   402a6e <submitr+0x593>
  4029d9:	ba 00 20 00 00       	mov    $0x2000,%edx
  4029de:	48 8d b4 24 40 20 00 	lea    0x2040(%rsp),%rsi
  4029e5:	00 
  4029e6:	48 8d 7c 24 30       	lea    0x30(%rsp),%rdi
  4029eb:	e8 34 f9 ff ff       	callq  402324 <rio_readlineb>
  4029f0:	48 85 c0             	test   %rax,%rax
  4029f3:	7f 79                	jg     402a6e <submitr+0x593>
  4029f5:	48 b8 45 72 72 6f 72 	movabs $0x43203a726f727245,%rax
  4029fc:	3a 20 43 
  4029ff:	48 89 03             	mov    %rax,(%rbx)
  402a02:	48 b8 6c 69 65 6e 74 	movabs $0x6e7520746e65696c,%rax
  402a09:	20 75 6e 
  402a0c:	48 89 43 08          	mov    %rax,0x8(%rbx)
  402a10:	48 b8 61 62 6c 65 20 	movabs $0x206f7420656c6261,%rax
  402a17:	74 6f 20 
  402a1a:	48 89 43 10          	mov    %rax,0x10(%rbx)
  402a1e:	48 b8 72 65 61 64 20 	movabs $0x6165682064616572,%rax
  402a25:	68 65 61 
  402a28:	48 89 43 18          	mov    %rax,0x18(%rbx)
  402a2c:	48 b8 64 65 72 73 20 	movabs $0x6f72662073726564,%rax
  402a33:	66 72 6f 
  402a36:	48 89 43 20          	mov    %rax,0x20(%rbx)
  402a3a:	48 b8 6d 20 74 68 65 	movabs $0x657220656874206d,%rax
  402a41:	20 72 65 
  402a44:	48 89 43 28          	mov    %rax,0x28(%rbx)
  402a48:	48 b8 73 75 6c 74 20 	movabs $0x72657320746c7573,%rax
  402a4f:	73 65 72 
  402a52:	48 89 43 30          	mov    %rax,0x30(%rbx)
  402a56:	c7 43 38 76 65 72 00 	movl   $0x726576,0x38(%rbx)
  402a5d:	89 ef                	mov    %ebp,%edi
  402a5f:	e8 dc e2 ff ff       	callq  400d40 <close@plt>
  402a64:	b8 ff ff ff ff       	mov    $0xffffffff,%eax
  402a69:	e9 b3 01 00 00       	jmpq   402c21 <submitr+0x746>
  402a6e:	0f b6 94 24 40 20 00 	movzbl 0x2040(%rsp),%edx
  402a75:	00 
  402a76:	b8 0d 00 00 00       	mov    $0xd,%eax
  402a7b:	29 d0                	sub    %edx,%eax
  402a7d:	75 1b                	jne    402a9a <submitr+0x5bf>
  402a7f:	0f b6 94 24 41 20 00 	movzbl 0x2041(%rsp),%edx
  402a86:	00 
  402a87:	b8 0a 00 00 00       	mov    $0xa,%eax
  402a8c:	29 d0                	sub    %edx,%eax
  402a8e:	75 0a                	jne    402a9a <submitr+0x5bf>
  402a90:	0f b6 84 24 42 20 00 	movzbl 0x2042(%rsp),%eax
  402a97:	00 
  402a98:	f7 d8                	neg    %eax
  402a9a:	85 c0                	test   %eax,%eax
  402a9c:	0f 85 37 ff ff ff    	jne    4029d9 <submitr+0x4fe>
  402aa2:	ba 00 20 00 00       	mov    $0x2000,%edx
  402aa7:	48 8d b4 24 40 20 00 	lea    0x2040(%rsp),%rsi
  402aae:	00 
  402aaf:	48 8d 7c 24 30       	lea    0x30(%rsp),%rdi
  402ab4:	e8 6b f8 ff ff       	callq  402324 <rio_readlineb>
  402ab9:	48 85 c0             	test   %rax,%rax
  402abc:	0f 8f 83 00 00 00    	jg     402b45 <submitr+0x66a>
  402ac2:	48 b8 45 72 72 6f 72 	movabs $0x43203a726f727245,%rax
  402ac9:	3a 20 43 
  402acc:	48 89 03             	mov    %rax,(%rbx)
  402acf:	48 b8 6c 69 65 6e 74 	movabs $0x6e7520746e65696c,%rax
  402ad6:	20 75 6e 
  402ad9:	48 89 43 08          	mov    %rax,0x8(%rbx)
  402add:	48 b8 61 62 6c 65 20 	movabs $0x206f7420656c6261,%rax
  402ae4:	74 6f 20 
  402ae7:	48 89 43 10          	mov    %rax,0x10(%rbx)
  402aeb:	48 b8 72 65 61 64 20 	movabs $0x6174732064616572,%rax
  402af2:	73 74 61 
  402af5:	48 89 43 18          	mov    %rax,0x18(%rbx)
  402af9:	48 b8 74 75 73 20 6d 	movabs $0x7373656d20737574,%rax
  402b00:	65 73 73 
  402b03:	48 89 43 20          	mov    %rax,0x20(%rbx)
  402b07:	48 b8 61 67 65 20 66 	movabs $0x6d6f726620656761,%rax
  402b0e:	72 6f 6d 
  402b11:	48 89 43 28          	mov    %rax,0x28(%rbx)
  402b15:	48 b8 20 72 65 73 75 	movabs $0x20746c7573657220,%rax
  402b1c:	6c 74 20 
  402b1f:	48 89 43 30          	mov    %rax,0x30(%rbx)
  402b23:	c7 43 38 73 65 72 76 	movl   $0x76726573,0x38(%rbx)
  402b2a:	66 c7 43 3c 65 72    	movw   $0x7265,0x3c(%rbx)
  402b30:	c6 43 3e 00          	movb   $0x0,0x3e(%rbx)
  402b34:	89 ef                	mov    %ebp,%edi
  402b36:	e8 05 e2 ff ff       	callq  400d40 <close@plt>
  402b3b:	b8 ff ff ff ff       	mov    $0xffffffff,%eax
  402b40:	e9 dc 00 00 00       	jmpq   402c21 <submitr+0x746>
  402b45:	44 8b 44 24 1c       	mov    0x1c(%rsp),%r8d
  402b4a:	41 81 f8 c8 00 00 00 	cmp    $0xc8,%r8d
  402b51:	74 37                	je     402b8a <submitr+0x6af>
  402b53:	4c 8d 8c 24 40 80 00 	lea    0x8040(%rsp),%r9
  402b5a:	00 
  402b5b:	b9 58 37 40 00       	mov    $0x403758,%ecx
  402b60:	48 c7 c2 ff ff ff ff 	mov    $0xffffffffffffffff,%rdx
  402b67:	be 01 00 00 00       	mov    $0x1,%esi
  402b6c:	48 89 df             	mov    %rbx,%rdi
  402b6f:	b8 00 00 00 00       	mov    $0x0,%eax
  402b74:	e8 27 e3 ff ff       	callq  400ea0 <__sprintf_chk@plt>
  402b79:	89 ef                	mov    %ebp,%edi
  402b7b:	e8 c0 e1 ff ff       	callq  400d40 <close@plt>
  402b80:	b8 ff ff ff ff       	mov    $0xffffffff,%eax
  402b85:	e9 97 00 00 00       	jmpq   402c21 <submitr+0x746>
  402b8a:	48 8d b4 24 40 20 00 	lea    0x2040(%rsp),%rsi
  402b91:	00 
  402b92:	48 89 df             	mov    %rbx,%rdi
  402b95:	e8 36 e1 ff ff       	callq  400cd0 <strcpy@plt>
  402b9a:	89 ef                	mov    %ebp,%edi
  402b9c:	e8 9f e1 ff ff       	callq  400d40 <close@plt>
  402ba1:	0f b6 03             	movzbl (%rbx),%eax
  402ba4:	ba 4f 00 00 00       	mov    $0x4f,%edx
  402ba9:	29 c2                	sub    %eax,%edx
  402bab:	75 22                	jne    402bcf <submitr+0x6f4>
  402bad:	0f b6 4b 01          	movzbl 0x1(%rbx),%ecx
  402bb1:	b8 4b 00 00 00       	mov    $0x4b,%eax
  402bb6:	29 c8                	sub    %ecx,%eax
  402bb8:	75 17                	jne    402bd1 <submitr+0x6f6>
  402bba:	0f b6 4b 02          	movzbl 0x2(%rbx),%ecx
  402bbe:	b8 0a 00 00 00       	mov    $0xa,%eax
  402bc3:	29 c8                	sub    %ecx,%eax
  402bc5:	75 0a                	jne    402bd1 <submitr+0x6f6>
  402bc7:	0f b6 43 03          	movzbl 0x3(%rbx),%eax
  402bcb:	f7 d8                	neg    %eax
  402bcd:	eb 02                	jmp    402bd1 <submitr+0x6f6>
  402bcf:	89 d0                	mov    %edx,%eax
  402bd1:	85 c0                	test   %eax,%eax
  402bd3:	74 40                	je     402c15 <submitr+0x73a>
  402bd5:	bf a0 37 40 00       	mov    $0x4037a0,%edi
  402bda:	b9 05 00 00 00       	mov    $0x5,%ecx
  402bdf:	48 89 de             	mov    %rbx,%rsi
  402be2:	f3 a6                	repz cmpsb %es:(%rdi),%ds:(%rsi)
  402be4:	0f 97 c0             	seta   %al
  402be7:	0f 92 c1             	setb   %cl
  402bea:	29 c8                	sub    %ecx,%eax
  402bec:	0f be c0             	movsbl %al,%eax
  402bef:	85 c0                	test   %eax,%eax
  402bf1:	74 2e                	je     402c21 <submitr+0x746>
  402bf3:	85 d2                	test   %edx,%edx
  402bf5:	75 13                	jne    402c0a <submitr+0x72f>
  402bf7:	0f b6 43 01          	movzbl 0x1(%rbx),%eax
  402bfb:	ba 4b 00 00 00       	mov    $0x4b,%edx
  402c00:	29 c2                	sub    %eax,%edx
  402c02:	75 06                	jne    402c0a <submitr+0x72f>
  402c04:	0f b6 53 02          	movzbl 0x2(%rbx),%edx
  402c08:	f7 da                	neg    %edx
  402c0a:	85 d2                	test   %edx,%edx
  402c0c:	75 0e                	jne    402c1c <submitr+0x741>
  402c0e:	b8 00 00 00 00       	mov    $0x0,%eax
  402c13:	eb 0c                	jmp    402c21 <submitr+0x746>
  402c15:	b8 00 00 00 00       	mov    $0x0,%eax
  402c1a:	eb 05                	jmp    402c21 <submitr+0x746>
  402c1c:	b8 ff ff ff ff       	mov    $0xffffffff,%eax
  402c21:	48 8b 9c 24 48 a0 00 	mov    0xa048(%rsp),%rbx
  402c28:	00 
  402c29:	64 48 33 1c 25 28 00 	xor    %fs:0x28,%rbx
  402c30:	00 00 
  402c32:	74 05                	je     402c39 <submitr+0x75e>
  402c34:	e8 c7 e0 ff ff       	callq  400d00 <__stack_chk_fail@plt>
  402c39:	48 81 c4 58 a0 00 00 	add    $0xa058,%rsp
  402c40:	5b                   	pop    %rbx
  402c41:	5d                   	pop    %rbp
  402c42:	41 5c                	pop    %r12
  402c44:	41 5d                	pop    %r13
  402c46:	41 5e                	pop    %r14
  402c48:	41 5f                	pop    %r15
  402c4a:	c3                   	retq   

0000000000402c4b <init_timeout>:
  402c4b:	85 ff                	test   %edi,%edi
  402c4d:	74 23                	je     402c72 <init_timeout+0x27>
  402c4f:	53                   	push   %rbx
  402c50:	89 fb                	mov    %edi,%ebx
  402c52:	85 ff                	test   %edi,%edi
  402c54:	79 05                	jns    402c5b <init_timeout+0x10>
  402c56:	bb 00 00 00 00       	mov    $0x0,%ebx
  402c5b:	be 0f 22 40 00       	mov    $0x40220f,%esi
  402c60:	bf 0e 00 00 00       	mov    $0xe,%edi
  402c65:	e8 06 e1 ff ff       	callq  400d70 <signal@plt>
  402c6a:	89 df                	mov    %ebx,%edi
  402c6c:	e8 bf e0 ff ff       	callq  400d30 <alarm@plt>
  402c71:	5b                   	pop    %rbx
  402c72:	f3 c3                	repz retq 

0000000000402c74 <init_driver>:
  402c74:	55                   	push   %rbp
  402c75:	53                   	push   %rbx
  402c76:	48 83 ec 28          	sub    $0x28,%rsp
  402c7a:	48 89 fd             	mov    %rdi,%rbp
  402c7d:	64 48 8b 04 25 28 00 	mov    %fs:0x28,%rax
  402c84:	00 00 
  402c86:	48 89 44 24 18       	mov    %rax,0x18(%rsp)
  402c8b:	31 c0                	xor    %eax,%eax
  402c8d:	be 01 00 00 00       	mov    $0x1,%esi
  402c92:	bf 0d 00 00 00       	mov    $0xd,%edi
  402c97:	e8 d4 e0 ff ff       	callq  400d70 <signal@plt>
  402c9c:	be 01 00 00 00       	mov    $0x1,%esi
  402ca1:	bf 1d 00 00 00       	mov    $0x1d,%edi
  402ca6:	e8 c5 e0 ff ff       	callq  400d70 <signal@plt>
  402cab:	be 01 00 00 00       	mov    $0x1,%esi
  402cb0:	bf 1d 00 00 00       	mov    $0x1d,%edi
  402cb5:	e8 b6 e0 ff ff       	callq  400d70 <signal@plt>
  402cba:	ba 00 00 00 00       	mov    $0x0,%edx
  402cbf:	be 01 00 00 00       	mov    $0x1,%esi
  402cc4:	bf 02 00 00 00       	mov    $0x2,%edi
  402cc9:	e8 e2 e1 ff ff       	callq  400eb0 <socket@plt>
  402cce:	85 c0                	test   %eax,%eax
  402cd0:	79 4f                	jns    402d21 <init_driver+0xad>
  402cd2:	48 b8 45 72 72 6f 72 	movabs $0x43203a726f727245,%rax
  402cd9:	3a 20 43 
  402cdc:	48 89 45 00          	mov    %rax,0x0(%rbp)
  402ce0:	48 b8 6c 69 65 6e 74 	movabs $0x6e7520746e65696c,%rax
  402ce7:	20 75 6e 
  402cea:	48 89 45 08          	mov    %rax,0x8(%rbp)
  402cee:	48 b8 61 62 6c 65 20 	movabs $0x206f7420656c6261,%rax
  402cf5:	74 6f 20 
  402cf8:	48 89 45 10          	mov    %rax,0x10(%rbp)
  402cfc:	48 b8 63 72 65 61 74 	movabs $0x7320657461657263,%rax
  402d03:	65 20 73 
  402d06:	48 89 45 18          	mov    %rax,0x18(%rbp)
  402d0a:	c7 45 20 6f 63 6b 65 	movl   $0x656b636f,0x20(%rbp)
  402d11:	66 c7 45 24 74 00    	movw   $0x74,0x24(%rbp)
  402d17:	b8 ff ff ff ff       	mov    $0xffffffff,%eax
  402d1c:	e9 2a 01 00 00       	jmpq   402e4b <init_driver+0x1d7>
  402d21:	89 c3                	mov    %eax,%ebx
  402d23:	bf a5 37 40 00       	mov    $0x4037a5,%edi
  402d28:	e8 53 e0 ff ff       	callq  400d80 <gethostbyname@plt>
  402d2d:	48 85 c0             	test   %rax,%rax
  402d30:	75 68                	jne    402d9a <init_driver+0x126>
  402d32:	48 b8 45 72 72 6f 72 	movabs $0x44203a726f727245,%rax
  402d39:	3a 20 44 
  402d3c:	48 89 45 00          	mov    %rax,0x0(%rbp)
  402d40:	48 b8 4e 53 20 69 73 	movabs $0x6e7520736920534e,%rax
  402d47:	20 75 6e 
  402d4a:	48 89 45 08          	mov    %rax,0x8(%rbp)
  402d4e:	48 b8 61 62 6c 65 20 	movabs $0x206f7420656c6261,%rax
  402d55:	74 6f 20 
  402d58:	48 89 45 10          	mov    %rax,0x10(%rbp)
  402d5c:	48 b8 72 65 73 6f 6c 	movabs $0x2065766c6f736572,%rax
  402d63:	76 65 20 
  402d66:	48 89 45 18          	mov    %rax,0x18(%rbp)
  402d6a:	48 b8 73 65 72 76 65 	movabs $0x6120726576726573,%rax
  402d71:	72 20 61 
  402d74:	48 89 45 20          	mov    %rax,0x20(%rbp)
  402d78:	c7 45 28 64 64 72 65 	movl   $0x65726464,0x28(%rbp)
  402d7f:	66 c7 45 2c 73 73    	movw   $0x7373,0x2c(%rbp)
  402d85:	c6 45 2e 00          	movb   $0x0,0x2e(%rbp)
  402d89:	89 df                	mov    %ebx,%edi
  402d8b:	e8 b0 df ff ff       	callq  400d40 <close@plt>
  402d90:	b8 ff ff ff ff       	mov    $0xffffffff,%eax
  402d95:	e9 b1 00 00 00       	jmpq   402e4b <init_driver+0x1d7>
  402d9a:	48 c7 04 24 00 00 00 	movq   $0x0,(%rsp)
  402da1:	00 
  402da2:	48 c7 44 24 08 00 00 	movq   $0x0,0x8(%rsp)
  402da9:	00 00 
  402dab:	66 c7 04 24 02 00    	movw   $0x2,(%rsp)
  402db1:	48 63 50 14          	movslq 0x14(%rax),%rdx
  402db5:	48 8b 40 18          	mov    0x18(%rax),%rax
  402db9:	48 8b 30             	mov    (%rax),%rsi
  402dbc:	48 8d 7c 24 04       	lea    0x4(%rsp),%rdi
  402dc1:	b9 0c 00 00 00       	mov    $0xc,%ecx
  402dc6:	e8 c5 df ff ff       	callq  400d90 <__memmove_chk@plt>
  402dcb:	66 c7 44 24 02 3c 9a 	movw   $0x9a3c,0x2(%rsp)
  402dd2:	ba 10 00 00 00       	mov    $0x10,%edx
  402dd7:	48 89 e6             	mov    %rsp,%rsi
  402dda:	89 df                	mov    %ebx,%edi
  402ddc:	e8 9f e0 ff ff       	callq  400e80 <connect@plt>
  402de1:	85 c0                	test   %eax,%eax
  402de3:	79 50                	jns    402e35 <init_driver+0x1c1>
  402de5:	48 b8 45 72 72 6f 72 	movabs $0x55203a726f727245,%rax
  402dec:	3a 20 55 
  402def:	48 89 45 00          	mov    %rax,0x0(%rbp)
  402df3:	48 b8 6e 61 62 6c 65 	movabs $0x6f7420656c62616e,%rax
  402dfa:	20 74 6f 
  402dfd:	48 89 45 08          	mov    %rax,0x8(%rbp)
  402e01:	48 b8 20 63 6f 6e 6e 	movabs $0x7463656e6e6f6320,%rax
  402e08:	65 63 74 
  402e0b:	48 89 45 10          	mov    %rax,0x10(%rbp)
  402e0f:	48 b8 20 74 6f 20 73 	movabs $0x76726573206f7420,%rax
  402e16:	65 72 76 
  402e19:	48 89 45 18          	mov    %rax,0x18(%rbp)
  402e1d:	66 c7 45 20 65 72    	movw   $0x7265,0x20(%rbp)
  402e23:	c6 45 22 00          	movb   $0x0,0x22(%rbp)
  402e27:	89 df                	mov    %ebx,%edi
  402e29:	e8 12 df ff ff       	callq  400d40 <close@plt>
  402e2e:	b8 ff ff ff ff       	mov    $0xffffffff,%eax
  402e33:	eb 16                	jmp    402e4b <init_driver+0x1d7>
  402e35:	89 df                	mov    %ebx,%edi
  402e37:	e8 04 df ff ff       	callq  400d40 <close@plt>
  402e3c:	66 c7 45 00 4f 4b    	movw   $0x4b4f,0x0(%rbp)
  402e42:	c6 45 02 00          	movb   $0x0,0x2(%rbp)
  402e46:	b8 00 00 00 00       	mov    $0x0,%eax
  402e4b:	48 8b 4c 24 18       	mov    0x18(%rsp),%rcx
  402e50:	64 48 33 0c 25 28 00 	xor    %fs:0x28,%rcx
  402e57:	00 00 
  402e59:	74 05                	je     402e60 <init_driver+0x1ec>
  402e5b:	e8 a0 de ff ff       	callq  400d00 <__stack_chk_fail@plt>
  402e60:	48 83 c4 28          	add    $0x28,%rsp
  402e64:	5b                   	pop    %rbx
  402e65:	5d                   	pop    %rbp
  402e66:	c3                   	retq   

0000000000402e67 <driver_post>:
  402e67:	53                   	push   %rbx
  402e68:	4c 89 cb             	mov    %r9,%rbx
  402e6b:	45 85 c0             	test   %r8d,%r8d
  402e6e:	74 27                	je     402e97 <driver_post+0x30>
  402e70:	48 89 ca             	mov    %rcx,%rdx
  402e73:	be bd 37 40 00       	mov    $0x4037bd,%esi
  402e78:	bf 01 00 00 00       	mov    $0x1,%edi
  402e7d:	b8 00 00 00 00       	mov    $0x0,%eax
  402e82:	e8 99 df ff ff       	callq  400e20 <__printf_chk@plt>
  402e87:	66 c7 03 4f 4b       	movw   $0x4b4f,(%rbx)
  402e8c:	c6 43 02 00          	movb   $0x0,0x2(%rbx)
  402e90:	b8 00 00 00 00       	mov    $0x0,%eax
  402e95:	eb 3f                	jmp    402ed6 <driver_post+0x6f>
  402e97:	48 85 ff             	test   %rdi,%rdi
  402e9a:	74 2c                	je     402ec8 <driver_post+0x61>
  402e9c:	80 3f 00             	cmpb   $0x0,(%rdi)
  402e9f:	74 27                	je     402ec8 <driver_post+0x61>
  402ea1:	48 83 ec 08          	sub    $0x8,%rsp
  402ea5:	41 51                	push   %r9
  402ea7:	49 89 c9             	mov    %rcx,%r9
  402eaa:	49 89 d0             	mov    %rdx,%r8
  402ead:	48 89 f9             	mov    %rdi,%rcx
  402eb0:	48 89 f2             	mov    %rsi,%rdx
  402eb3:	be 9a 3c 00 00       	mov    $0x3c9a,%esi
  402eb8:	bf a5 37 40 00       	mov    $0x4037a5,%edi
  402ebd:	e8 19 f6 ff ff       	callq  4024db <submitr>
  402ec2:	48 83 c4 10          	add    $0x10,%rsp
  402ec6:	eb 0e                	jmp    402ed6 <driver_post+0x6f>
  402ec8:	66 c7 03 4f 4b       	movw   $0x4b4f,(%rbx)
  402ecd:	c6 43 02 00          	movb   $0x0,0x2(%rbx)
  402ed1:	b8 00 00 00 00       	mov    $0x0,%eax
  402ed6:	5b                   	pop    %rbx
  402ed7:	c3                   	retq   

0000000000402ed8 <check>:
  402ed8:	89 f8                	mov    %edi,%eax
  402eda:	c1 e8 1c             	shr    $0x1c,%eax
  402edd:	85 c0                	test   %eax,%eax
  402edf:	74 1d                	je     402efe <check+0x26>
  402ee1:	b9 00 00 00 00       	mov    $0x0,%ecx
  402ee6:	eb 0b                	jmp    402ef3 <check+0x1b>
  402ee8:	89 f8                	mov    %edi,%eax
  402eea:	d3 e8                	shr    %cl,%eax
  402eec:	3c 0a                	cmp    $0xa,%al
  402eee:	74 14                	je     402f04 <check+0x2c>
  402ef0:	83 c1 08             	add    $0x8,%ecx
  402ef3:	83 f9 1f             	cmp    $0x1f,%ecx
  402ef6:	7e f0                	jle    402ee8 <check+0x10>
  402ef8:	b8 01 00 00 00       	mov    $0x1,%eax
  402efd:	c3                   	retq   
  402efe:	b8 00 00 00 00       	mov    $0x0,%eax
  402f03:	c3                   	retq   
  402f04:	b8 00 00 00 00       	mov    $0x0,%eax
  402f09:	c3                   	retq   

0000000000402f0a <gencookie>:
  402f0a:	53                   	push   %rbx
  402f0b:	83 c7 01             	add    $0x1,%edi
  402f0e:	e8 9d dd ff ff       	callq  400cb0 <srandom@plt>
  402f13:	e8 c8 de ff ff       	callq  400de0 <random@plt>
  402f18:	89 c3                	mov    %eax,%ebx
  402f1a:	89 c7                	mov    %eax,%edi
  402f1c:	e8 b7 ff ff ff       	callq  402ed8 <check>
  402f21:	85 c0                	test   %eax,%eax
  402f23:	74 ee                	je     402f13 <gencookie+0x9>
  402f25:	89 d8                	mov    %ebx,%eax
  402f27:	5b                   	pop    %rbx
  402f28:	c3                   	retq   
  402f29:	0f 1f 80 00 00 00 00 	nopl   0x0(%rax)

0000000000402f30 <__libc_csu_init>:
  402f30:	41 57                	push   %r15
  402f32:	41 56                	push   %r14
  402f34:	41 89 ff             	mov    %edi,%r15d
  402f37:	41 55                	push   %r13
  402f39:	41 54                	push   %r12
  402f3b:	4c 8d 25 ce 1e 20 00 	lea    0x201ece(%rip),%r12        # 604e10 <__frame_dummy_init_array_entry>
  402f42:	55                   	push   %rbp
  402f43:	48 8d 2d ce 1e 20 00 	lea    0x201ece(%rip),%rbp        # 604e18 <__init_array_end>
  402f4a:	53                   	push   %rbx
  402f4b:	49 89 f6             	mov    %rsi,%r14
  402f4e:	49 89 d5             	mov    %rdx,%r13
  402f51:	31 db                	xor    %ebx,%ebx
  402f53:	4c 29 e5             	sub    %r12,%rbp
  402f56:	48 83 ec 08          	sub    $0x8,%rsp
  402f5a:	48 c1 fd 03          	sar    $0x3,%rbp
  402f5e:	e8 fd dc ff ff       	callq  400c60 <_init>
  402f63:	48 85 ed             	test   %rbp,%rbp
  402f66:	74 1e                	je     402f86 <__libc_csu_init+0x56>
  402f68:	0f 1f 84 00 00 00 00 	nopl   0x0(%rax,%rax,1)
  402f6f:	00 
  402f70:	4c 89 ea             	mov    %r13,%rdx
  402f73:	4c 89 f6             	mov    %r14,%rsi
  402f76:	44 89 ff             	mov    %r15d,%edi
  402f79:	41 ff 14 dc          	callq  *(%r12,%rbx,8)
  402f7d:	48 83 c3 01          	add    $0x1,%rbx
  402f81:	48 39 eb             	cmp    %rbp,%rbx
  402f84:	75 ea                	jne    402f70 <__libc_csu_init+0x40>
  402f86:	48 83 c4 08          	add    $0x8,%rsp
  402f8a:	5b                   	pop    %rbx
  402f8b:	5d                   	pop    %rbp
  402f8c:	41 5c                	pop    %r12
  402f8e:	41 5d                	pop    %r13
  402f90:	41 5e                	pop    %r14
  402f92:	41 5f                	pop    %r15
  402f94:	c3                   	retq   
  402f95:	90                   	nop
  402f96:	66 2e 0f 1f 84 00 00 	nopw   %cs:0x0(%rax,%rax,1)
  402f9d:	00 00 00 

0000000000402fa0 <__libc_csu_fini>:
  402fa0:	f3 c3                	repz retq 

Disassembly of section .fini:

0000000000402fa4 <_fini>:
  402fa4:	48 83 ec 08          	sub    $0x8,%rsp
  402fa8:	48 83 c4 08          	add    $0x8,%rsp
  402fac:	c3                   	retq   
